(lp0
(lp1
F0.08999999999999997
aF1.9012890364171358
aa(lp2
F0.09219544457292896
aF1.3954210834009926
aa(lp3
F0.0
aF0.022360679774997918
aa(lp4
F0.0
aF0.022360679774997918
aa(lp5
F0.0
aF0.014142135623730963
aa(lp6
F2.220446049250313e-16
aF0.022360679774997717
aa(lp7
F0.0
aF0.014142135623730963
aa(lp8
F0.010000000000000009
aF0.014142135623730963
aa(lp9
F0.022360679774997918
aF0.03162277660168382
aa(lp10
F0.23706539182259406
aF0.07810249675906647
aa(lp11
F0.08000000000000002
aF0.12041594578792301
aa(lp12
F0.010000000000000009
aF0.020000000000000018
aa(lp13
F0.0
aF0.020000000000000018
aa(lp14
F5.551115123125783e-17
aF0.019999999999999962
aa(lp15
F0.014142135623730963
aF0.022360679774997918
aa(lp16
F0.009999999999999953
aF0.07
aa(lp17
F0.0
aF0.022360679774997918
aa(lp18
F5.551115123125783e-17
aF0.019999999999999962
aa(lp19
F0.009999999999999953
aF0.010000000000000009
aa(lp20
F0.014142135623730963
aF0.022360679774997918
aa(lp21
F2.7755575615628914e-17
aF0.01999999999999999
aa(lp22
F0.014142135623730963
aF0.010000000000000009
aa(lp23
F0.010000000000000009
aF0.0316227766016838
aa(lp24
F0.09999999999999988
aF0.5263078946776306
aa(lp25
F0.014142135623730944
aF0.022360679774997904
aa(lp26
F0.014142135623730963
aF0.03162277660168382
aa(lp27
F0.014142135623730826
aF0.13416407864998747
aa(lp28
F0.014142135623730923
aF0.010000000000000009
aa(lp29
F0.010000000000000009
aF0.010000000000000009
aa(lp30
F0.010000000000000009
aF0.022360679774997918
aa(lp31
F0.13601470508735444
aF0.1702938636592639
aa(lp32
F0.03162277660168382
aF0.010000000000000009
aa(lp33
F0.010000000000000231
aF0.014142135623730807
aa(lp34
F0.009999999999999787
aF0.014142135623730963
aa(lp35
F0.0
aF0.014142135623730963
aa(lp36
F0.010000000000000009
aF0.022360679774997918
aa(lp37
F0.0
aF0.014142135623730963
aa(lp38
F0.1442220510185598
aF0.3400000000000001
aa(lp39
F0.06000000000000005
aF0.6030754513325841
aa(lp40
F0.020000000000000018
aF0.05385164807134509
aa(lp41
F0.0
aF0.014142135623730963
aa(lp42
F0.0
aF0.022360679774997918
aa(lp43
F0.014142135623730963
aF0.014142135623730963
aa(lp44
F0.014142135623730963
aF0.020000000000000018
aa(lp45
F0.010000000000000009
aF0.014142135623730807
aa(lp46
F0.0
aF0.014142135623730963
aa(lp47
F0.07810249675906639
aF0.15033296378372904
aa(lp48
F0.014142135623731041
aF0.022360679774997918
aa(lp49
F0.0
aF0.022360679774997918
aa(lp50
F0.05830951894845301
aF0.16492422502470636
aa(lp51
F0.10000000000000023
aF0.09219544457292891
aa(lp52
F0.010000000000000231
aF0.07071067811865482
aa(lp53
F0.010000000000000009
aF0.010000000000000009
aa(lp54
F0.15264337522473756
aF0.19646882704388496
aa(lp55
F0.12206555615733729
aF0.1131370849898475
aa(lp56
F0.010000000000000009
aF0.014142135623730958
aa(lp57
F0.022360679774997713
aF0.020000000000000004
aa(lp58
F0.0
aF0.022360679774997894
aa(lp59
F0.014142135623730952
aF0.020000000000000004
aa(lp60
F0.010000000000000009
aF0.022360679774997904
aa(lp61
F0.09433981132056612
aF0.3006659275674582
aa(lp62
F0.009999999999999981
aF0.01999999999999999
aa(lp63
F0.009999999999999981
aF0.010000000000000009
aa(lp64
F0.17204650534085258
aF0.18027756377319945
aa(lp65
F0.06403124237432835
aF0.13892443989449807
aa(lp66
F0.010000000000000009
aF0.022360679774997918
aa(lp67
F0.12041594578792295
aF0.18439088914585774
aa(lp68
F0.08944271909999146
aF0.10816653826391956
aa(lp69
F0.16278820596099697
aF0.41303752856126763
aa(lp70
F0.041231056256176644
aF0.07071067811865482
aa(lp71
F0.08000000000000007
aF0.26305892875931813
aa(lp72
F0.21540659228538006
aF0.06708203932499375
aa(lp73
F0.020000000000000018
aF0.10630145812734651
aa(lp74
F1.1102230246251565e-16
aF0.014142135623730885
aa(lp75
F0.014142135623730963
aF0.028284271247461926
aa(lp76
F0.014142135623731041
aF0.022360679774997918
aa(lp77
F0.01414213562373112
aF0.07810249675906654
aa(lp78
F0.010000000000000009
aF0.014142135623730963
aa(lp79
F0.014142135623730963
aF0.022360679774997918
aa(lp80
F0.010000000000000009
aF0.014142135623730885
aa(lp81
F0.010000000000000009
aF0.022360679774997918
aa(lp82
F0.02999999999999997
aF0.060827625302982254
aa(lp83
F0.0316227766016837
aF0.17262676501632063
aa(lp84
F0.022360679774997894
aF0.050000000000000044
aa(lp85
F0.010000000000000009
aF0.028284271247461926
aa(lp86
F0.010000000000000009
aF0.010000000000000009
aa(lp87
F2.220446049250313e-16
aF0.0
aa(lp88
F0.010000000000000009
aF0.010000000000000009
aa(lp89
F0.0
aF0.014142135623730963
aa(lp90
F0.0
aF0.014142135623730963
aa(lp91
F3.1401849173675503e-16
aF0.0
aa(lp92
F0.12083045973594553
aF0.044721359549995836
aa(lp93
F0.040000000000000036
aF0.2745906043549196
aa(lp94
F0.0
aF0.014142135623730963
aa(lp95
F0.010000000000000009
aF0.014142135623730963
aa(lp96
F5.551115123125783e-17
aF0.022360679774997866
aa(lp97
F5.551115123125783e-17
aF0.010000000000000009
aa(lp98
F0.2209072203437453
aF0.03
aa(lp99
F0.1655294535724685
aF0.08246211251235316
aa(lp100
F0.10630145812734647
aF0.009999999999999995
aa(lp101
F0.11180339887498945
aF0.0761577310586391
aa(lp102
F0.161245154965971
aF0.13453624047073715
aa(lp103
F0.009999999999999981
aF0.022360679774997918
aa(lp104
F0.03605551275463989
aF0.158113883008419
aa(lp105
F1.3877787807814457e-17
aF0.014142135623730958
aa(lp106
F0.036055512754639925
aF0.03162277660168382
aa(lp107
F0.010000000000000009
aF0.010000000000000009
aa(lp108
F0.010000000000000009
aF0.022360679774997918
aa(lp109
F0.010000000000000037
aF0.014142135623730923
aa(lp110
F0.014142135623730963
aF0.020000000000000018
aa(lp111
F0.019999999999999962
aF0.30000000000000004
aa(lp112
F0.014142135623730963
aF0.010000000000000009
aa(lp113
F0.010000000000000009
aF0.010000000000000009
aa(lp114
F0.010000000000000009
aF0.0
aa(lp115
F0.009999999999999787
aF0.010000000000000009
aa(lp116
F0.014142135623730963
aF0.0
aa(lp117
F0.0
aF0.0
aa(lp118
F0.0
aF0.010000000000000009
aa(lp119
F2.220446049250313e-16
aF0.014142135623730807
aa(lp120
F2.220446049250313e-16
aF0.0
aa(lp121
F0.030000000000000027
aF0.17000000000000004
aa(lp122
F0.014142135623730923
aF0.07071067811865482
aa(lp123
F0.010000000000000009
aF0.022360679774997918
aa(lp124
F0.010000000000000064
aF0.009999999999999953
aa(lp125
F0.010000000000000009
aF0.020000000000000018
aa(lp126
F5.551115123125783e-17
aF0.020000000000000018
aa(lp127
F0.010000000000000009
aF0.010000000000000009
aa(lp128
F0.0
aF0.03162277660168377
aa(lp129
F0.06324555320336767
aF0.2596150997149434
aa(lp130
F0.010000000000000009
aF0.010000000000000009
aa(lp131
F0.010000000000000009
aF0.0
aa(lp132
F0.0
aF0.010000000000000009
aa(lp133
F0.0
aF0.010000000000000009
aa(lp134
F0.0
aF0.0
aa(lp135
F0.010000000000000009
aF0.0
aa(lp136
F0.014142135623730963
aF0.0
aa(lp137
F0.014142135623730963
aF0.0
aa(lp138
F0.07615773105863914
aF0.08602325267042613
aa(lp139
F0.009999999999999787
aF0.16155494421403505
aa(lp140
F0.010000000000000009
aF0.020000000000000018
aa(lp141
F0.010000000000000009
aF0.014142135623730963
aa(lp142
F0.010000000000000009
aF0.022360679774997918
aa(lp143
F0.014142135623730963
aF0.020000000000000018
aa(lp144
F0.010000000000000009
aF0.014142135623730963
aa(lp145
F0.0
aF0.020000000000000018
aa(lp146
F0.0
aF0.014142135623730963
aa(lp147
F0.010000000000000009
aF0.019999999999999907
aa(lp148
F0.03162277660168382
aF0.044721359549995836
aa(lp149
F0.0
aF0.010000000000000009
aa(lp150
F0.014142135623730973
aF0.21840329667841554
aa(lp151
F0.010000000000000009
aF0.0316227766016838
aa(lp152
F0.014142135623730952
aF0.020000000000000004
aa(lp153
F0.010000000000000009
aF0.022360679774997904
aa(lp154
F0.014142135623730963
aF0.009999999999999995
aa(lp155
F0.014142135623730952
aF0.022360679774997904
aa(lp156
F0.0
aF0.022360679774997894
aa(lp157
F0.014142135623730952
aF0.0316227766016838
aa(lp158
F0.02236067977499788
aF0.053851648071345064
aa(lp159
F0.009999999999999953
aF0.14764823060233392
aa(lp160
F0.0
aF0.0
aa(lp161
F0.0
aF0.010000000000000009
aa(lp162
F0.0
aF0.0
aa(lp163
F2.220446049250313e-16
aF0.0
aa(lp164
F0.010000000000000009
aF0.0
aa(lp165
F0.0
aF0.0
aa(lp166
F0.010000000000000009
aF0.014142135623730963
aa(lp167
F0.022360679774997918
aF0.0
aa(lp168
F0.29274562336608884
aF0.050000000000000044
aa(lp169
F0.014142135623730777
aF0.20615528128088315
aa(lp170
F0.014142135623730923
aF0.014142135623730963
aa(lp171
F2.237726045655905e-16
aF0.022360679774997894
aa(lp172
F0.010000000000000009
aF0.014142135623730963
aa(lp173
F0.014142135623730982
aF0.01999999999999999
aa(lp174
F0.014142135623730963
aF0.014142135623730963
aa(lp175
F0.0
aF0.014142135623730963
aa(lp176
F0.14212670403551894
aF0.05830951894845304
aa(lp177
F0.12206555615733701
aF0.13601470508735444
aa(lp178
F0.022360679774997918
aF0.20248456731316591
aa(lp179
F0.10630145812734663
aF0.1004987562112089
aa(lp180
F0.1627882059609971
aF0.21931712199461315
aa(lp181
F0.03162277660168377
aF0.10049875621120888
aa(lp182
F0.010000000000000009
aF0.0
aa(lp183
F0.010000000000000009
aF0.010000000000000009
aa(lp184
F0.014142135623730963
aF0.0
aa(lp185
F0.0
aF0.0
aa(lp186
F2.220446049250313e-16
aF0.0
aa(lp187
F2.220446049250313e-16
aF0.0
aa(lp188
F2.220446049250313e-16
aF0.0
aa(lp189
F0.028284271247461534
aF0.24351591323771843
aa(lp190
F0.18027756377319956
aF0.0854400374531752
aa(lp191
F0.010000000000000231
aF0.022360679774997817
aa(lp192
F0.009999999999999981
aF0.08544003745317538
aa(lp193
F0.0
aF0.01999999999999999
aa(lp194
F0.009999999999999981
aF0.010000000000000009
aa(lp195
F2.7755575615628914e-17
aF0.01999999999999999
aa(lp196
F0.010000000000000009
aF0.014142135623730963
aa(lp197
F0.010000000000000009
aF0.01999999999999999
aa(lp198
F0.010000000000000009
aF0.0316227766016838
aa(lp199
F0.07071067811865482
aF0.16492422502470636
aa(lp200
F0.0
aF0.010000000000000009
aa(lp201
F0.010000000000000009
aF0.0
aa(lp202
F0.010000000000000009
aF0.0
aa(lp203
F0.010000000000000009
aF0.0
aa(lp204
F0.010000000000000009
aF0.0
aa(lp205
F2.220446049250313e-16
aF0.0
aa(lp206
F0.0
aF0.0
aa(lp207
F0.010000000000000009
aF0.0
aa(lp208
F0.0
aF0.0
aa(lp209
F0.04123105625617659
aF0.04123105625617669
aa(lp210
F0.010000000000000009
aF0.050000000000000044
aa(lp211
F0.0
aF0.022360679774997918
aa(lp212
F0.01414213562373112
aF0.009999999999999787
aa(lp213
F0.010000000000000009
aF0.022360679774997918
aa(lp214
F0.010000000000000009
aF0.022360679774997918
aa(lp215
F0.014142135623730963
aF0.010000000000000009
aa(lp216
F2.220446049250313e-16
aF0.022360679774997918
aa(lp217
F0.0
aF0.0
aa(lp218
F0.014142135623730952
aF0.014142135623730952
aa(lp219
F0.0
aF0.0
aa(lp220
F0.0
aF0.0
aa(lp221
F0.0
aF0.0
aa(lp222
F0.009999999999999995
aF0.0
aa(lp223
F0.014142135623730944
aF0.010000000000000009
aa(lp224
F0.022360679774997894
aF0.010000000000000009
aa(lp225
F0.0
aF0.0
aa(lp226
F0.0
aF0.0
aa(lp227
F0.0
aF0.0
aa(lp228
F0.0
aF0.0
aa(lp229
F0.0
aF0.0
aa(lp230
F0.0
aF0.0
aa(lp231
F0.010000000000000009
aF0.0
aa(lp232
F0.0
aF0.0
aa(lp233
F0.0
aF0.0
aa(lp234
F0.08602325267042635
aF0.08602325267042621
aa(lp235
F0.16031219541881397
aF0.10630145812734647
aa(lp236
F0.019999999999999907
aF0.022360679774997814
aa(lp237
F0.022360679774997914
aF0.03162277660168382
aa(lp238
F0.13341664064126335
aF0.10049875621120899
aa(lp239
F0.014142135623730885
aF0.06708203932499371
aa(lp240
F0.07810249675906651
aF0.1118033988749895
aa(lp241
F0.010000000000000009
aF0.010000000000000009
aa(lp242
F0.009999999999999898
aF0.022360679774997817
aa(lp243
F0.14212670403551905
aF0.214009345590327
aa(lp244
F0.10999999999999999
aF0.24596747752497683
aa(lp245
F0.0860232526704262
aF0.1802775637731994
aa(lp246
F0.014142135623730963
aF0.0
aa(lp247
F0.0
aF0.0
aa(lp248
F2.220446049250313e-16
aF0.0
aa(lp249
F0.0
aF0.0
aa(lp250
F0.010000000000000009
aF0.0
aa(lp251
F0.0
aF0.0
aa(lp252
F0.010000000000000009
aF0.0
aa(lp253
F0.009999999999999787
aF0.0
aa(lp254
F0.014142135623730963
aF0.022360679774997817
aa(lp255
F0.022360679774997942
aF0.37656340767525465
aa(lp256
F0.014142135623730963
aF0.020000000000000018
aa(lp257
F0.0
aF0.014142135623730963
aa(lp258
F0.010000000000000009
aF0.022360679774997918
aa(lp259
F0.010000000000000009
aF0.022360679774997817
aa(lp260
F0.014142135623730885
aF0.010000000000000009
aa(lp261
F0.010000000000000009
aF0.022360679774997918
aa(lp262
F0.010000000000000009
aF0.010000000000000009
aa(lp263
F0.01999999999999999
aF0.19646882704388496
aa(lp264
F0.010000000000000009
aF0.014142135623730963
aa(lp265
F0.0
aF0.020000000000000018
aa(lp266
F0.0
aF0.010000000000000009
aa(lp267
F5.551115123125783e-17
aF0.019999999999999962
aa(lp268
F0.09055385138137413
aF0.10440306508910555
aa(lp269
F5.551115123125783e-17
aF0.1931320791582796
aa(lp270
F0.014142135623730963
aF0.010000000000000009
aa(lp271
F0.009999999999999981
aF0.1392838827718411
aa(lp272
F0.010000000000000037
aF0.022360679774997894
aa(lp273
F0.010000000000000009
aF0.022360679774997894
aa(lp274
F0.0
aF0.053851648071345064
aa(lp275
F0.0
aF0.022360679774997894
aa(lp276
F1.3877787807814457e-17
aF0.022360679774997904
aa(lp277
F1.3877787807814457e-17
aF0.05385164807134505
aa(lp278
F0.009999999999999995
aF0.014142135623730956
aa(lp279
F0.0
aF0.0223606797749979
aa(lp280
F0.010000000000000009
aF0.01
aa(lp281
F2.2247786310271853e-16
aF0.0141421356237308
aa(lp282
F0.06999999999999998
aF0.028284271247461905
aa(lp283
F0.014142135623730963
aF0.0
aa(lp284
F0.014142135623730807
aF0.0
aa(lp285
F0.014142135623730963
aF0.0
aa(lp286
F0.010000000000000009
aF0.0
aa(lp287
F0.010000000000000009
aF0.0
aa(lp288
F0.010000000000000009
aF0.0
aa(lp289
F0.014142135623730807
aF0.0
aa(lp290
F0.0
aF0.0
aa(lp291
F0.0
aF0.0
aa(lp292
F0.0360555127546398
aF0.028284271247461926
aa(lp293
F0.019999999999999796
aF0.11180339887498958
aa(lp294
F0.010000000000000009
aF0.010000000000000009
aa(lp295
F0.1769180601295414
aF0.028284271247461905
aa(lp296
F0.18601075237738265
aF0.07000000000000006
aa(lp297
F2.237726045655905e-16
aF0.022360679774997918
aa(lp298
F0.0
aF0.014142135623730963
aa(lp299
F0.17204650534085256
aF0.05099019513592788
aa(lp300
F0.020000000000000018
aF0.0
aa(lp301
F0.0
aF0.0
aa(lp302
F0.014142135623730963
aF0.009999999999999995
aa(lp303
F0.009999999999999995
aF0.0
aa(lp304
F0.020000000000000004
aF0.0806225774829855
aa(lp305
F0.009999999999999981
aF0.014142135623730963
aa(lp306
F0.0
aF0.0
aa(lp307
F0.0
aF0.0
aa(lp308
F0.0
aF0.0
aa(lp309
F0.0
aF0.0
aa(lp310
F0.0
aF0.0
aa(lp311
F0.0
aF0.0
aa(lp312
F0.0
aF0.0
aa(lp313
F0.0
aF0.0
aa(lp314
F0.0
aF0.0
aa(lp315
F0.0
aF0.06324555320336764
aa(lp316
F0.18027756377319953
aF0.022360679774997817
aa(lp317
F0.04123105625617669
aF0.020000000000000018
aa(lp318
F0.04123105625617662
aF0.21540659228538014
aa(lp319
F0.010000000000000009
aF0.020000000000000018
aa(lp320
F0.010000000000000009
aF0.010000000000000009
aa(lp321
F0.010000000000000009
aF0.022360679774997918
aa(lp322
F0.014142135623730963
aF0.020000000000000018
aa(lp323
F0.010000000000000009
aF0.010000000000000009
aa(lp324
F1.1102230246251565e-16
aF0.029999999999999916
aa(lp325
F0.010000000000000009
aF0.1208304597359456
aa(lp326
F0.014142135623730963
aF0.022360679774997918
aa(lp327
F0.010000000000000009
aF0.020000000000000018
aa(lp328
F5.551115123125783e-17
aF0.022360679774997866
aa(lp329
F5.551115123125783e-17
aF0.0728010988928052
aa(lp330
F0.009999999999999953
aF0.014142135623730963
aa(lp331
F0.014142135623730807
aF0.014142135623730807
aa(lp332
F0.03
aF0.1655294535724685
aa(lp333
F0.036055512754639925
aF0.12165525060596427
aa(lp334
F0.010000000000000009
aF0.022360679774997918
aa(lp335
F0.014142135623730963
aF0.010000000000000009
aa(lp336
F0.022360679774997942
aF0.050000000000000044
aa(lp337
F0.010000000000000009
aF0.036055512754639904
aa(lp338
F0.014142135623730944
aF0.022360679774997894
aa(lp339
F1.3877787807814457e-17
aF0.022360679774997904
aa(lp340
F0.022360679774997894
aF0.17464249196572973
aa(lp341
F0.04472135954999582
aF0.03162277660168382
aa(lp342
F0.009999999999999787
aF0.0
aa(lp343
F0.010000000000000009
aF0.0
aa(lp344
F0.010000000000000009
aF0.0
aa(lp345
F0.0
aF0.0
aa(lp346
F2.220446049250313e-16
aF0.0
aa(lp347
F2.220446049250313e-16
aF0.010000000000000009
aa(lp348
F0.0
aF0.0
aa(lp349
F0.0
aF0.0
aa(lp350
F0.01414213562373112
aF0.020000000000000018
aa(lp351
F0.009999999999999898
aF0.010000000000000009
aa(lp352
F0.009999999999999898
aF0.0
aa(lp353
F0.05385164807134499
aF0.028284271247461926
aa(lp354
F0.014142135623730944
aF0.05000000000000001
aa(lp355
F1.3877787807814457e-17
aF0.020000000000000004
aa(lp356
F0.010000000000000023
aF0.014142135623730802
aa(lp357
F1.3877787807814457e-17
aF0.02
aa(lp358
F0.0
aF0.014142135623730958
aa(lp359
F0.0
aF0.02
aa(lp360
F0.07810249675906661
aF0.1264911064067351
aa(lp361
F0.014142135623730807
aF0.022360679774997717
aa(lp362
F0.0
aF0.022360679774997918
aa(lp363
F0.014142135623730923
aF0.020000000000000018
aa(lp364
F0.010000000000000064
aF0.09486832980505144
aa(lp365
F0.0
aF0.03162277660168382
aa(lp366
F0.010000000000000009
aF0.03162277660168382
aa(lp367
F0.06
aF0.11180339887498936
aa(lp368
F0.07071067811865482
aF0.11661903789690607
aa(lp369
F0.010000000000000009
aF0.010000000000000009
aa(lp370
F0.06082762530298204
aF0.21260291625469294
aa(lp371
F0.010000000000000009
aF0.0
aa(lp372
F0.010000000000000009
aF0.0
aa(lp373
F0.010000000000000231
aF0.0
aa(lp374
F0.010000000000000009
aF0.0
aa(lp375
F0.014142135623730963
aF0.0
aa(lp376
F0.0
aF0.0
aa(lp377
F2.220446049250313e-16
aF0.0
aa(lp378
F0.036055512754640175
aF0.022360679774997817
aa(lp379
F0.010000000000000009
aF0.10049875621120899
aa(lp380
F0.0
aF0.022360679774997918
aa(lp381
F0.0
aF0.020000000000000018
aa(lp382
F0.014142135623731041
aF0.009999999999999898
aa(lp383
F0.014142135623730963
aF0.022360679774997918
aa(lp384
F0.010000000000000009
aF0.010000000000000009
aa(lp385
F0.010000000000000009
aF0.020000000000000018
aa(lp386
F0.014142135623730807
aF0.029999999999999805
aa(lp387
F0.010000000000000009
aF0.05830951894845285
aa(lp388
F0.010000000000000009
aF0.13038404810405288
aa(lp389
F2.7755575615628914e-17
aF0.014142135623730944
aa(lp390
F0.010000000000000009
aF0.014142135623730807
aa(lp391
F0.009999999999999995
aF0.010000000000000009
aa(lp392
F0.04123105625617643
aF0.044721359549995836
aa(lp393
F0.0
aF0.0
aa(lp394
F0.0
aF0.0
aa(lp395
F0.0
aF0.0
aa(lp396
F0.0
aF0.0
aa(lp397
F0.010000000000000009
aF0.0
aa(lp398
F0.014142135623730963
aF0.0
aa(lp399
F3.1401849173675503e-16
aF0.010000000000000009
aa(lp400
F0.27459060435491944
aF0.022360679774997918
aa(lp401
F0.010000000000000009
aF0.18973665961010272
aa(lp402
F0.0
aF0.020000000000000018
aa(lp403
F0.014142135623730807
aF0.040000000000000036
aa(lp404
F0.029999999999999916
aF0.1360147050873544
aa(lp405
F0.01414213562373112
aF0.22135943621178653
aa(lp406
F0.014142135623730963
aF0.010000000000000009
aa(lp407
F0.020000000000000073
aF0.010000000000000009
aa(lp408
F0.010000000000000009
aF0.022360679774997918
aa(lp409
F0.014142135623730923
aF0.028284271247461888
aa(lp410
F0.041231056256176644
aF0.08944271909999166
aa(lp411
F0.060827625302982254
aF0.05830951894845304
aa(lp412
F0.022360679774997904
aF0.022360679774997914
aa(lp413
F6.938893903907228e-18
aF0.02236067977499791
aa(lp414
F6.938893903907228e-18
aF0.014142135623730963
aa(lp415
F0.022360679774997894
aF0.05656854249492383
aa(lp416
F0.010000000000000009
aF0.010000000000000009
aa(lp417
F0.010000000000000009
aF0.0
aa(lp418
F0.010000000000000009
aF0.0
aa(lp419
F0.009999999999999787
aF0.0
aa(lp420
F2.220446049250313e-16
aF0.0
aa(lp421
F0.009999999999999787
aF0.0
aa(lp422
F0.014142135623730807
aF0.010000000000000009
aa(lp423
F0.009999999999999787
aF0.022360679774997918
aa(lp424
F0.0
aF0.014142135623730963
aa(lp425
F0.07071067811865482
aF0.022360679774997918
aa(lp426
F0.1414213562373095
aF0.10816653826391974
aa(lp427
F0.020000000000000018
aF0.03162277660168382
aa(lp428
F0.0
aF0.014142135623730963
aa(lp429
F0.009999999999999981
aF0.014142135623730963
aa(lp430
F0.014142135623730807
aF0.02828427124746177
aa(lp431
F0.010000000000000009
aF0.0360555127546399
aa(lp432
F0.010000000000000009
aF0.010000000000000009
aa(lp433
F0.10295630140986999
aF0.12041594578792295
aa(lp434
F0.19313207915827962
aF0.06000000000000005
aa(lp435
F0.13038404810405294
aF0.0447213595499958
aa(lp436
F0.05830951894845303
aF0.06403124237432851
aa(lp437
F0.010000000000000009
aF0.044721359549995746
aa(lp438
F0.009999999999999898
aF0.014142135623730885
aa(lp439
F0.07211102550927966
aF0.060827625302982254
aa(lp440
F0.014142135623730807
aF0.0
aa(lp441
F0.010000000000000009
aF0.0
aa(lp442
F0.010000000000000009
aF0.0
aa(lp443
F0.010000000000000009
aF0.0
aa(lp444
F0.014142135623730807
aF0.0
aa(lp445
F0.0
aF0.0
aa(lp446
F0.0
aF0.0
aa(lp447
F0.0
aF0.0
aa(lp448
F0.07280109889280514
aF0.03162277660168382
aa(lp449
F0.0
aF0.10198039027185557
aa(lp450
F0.010000000000000009
aF0.020000000000000018
aa(lp451
F1.1102230246251565e-16
aF0.022360679774997918
aa(lp452
F1.1102230246251565e-16
aF0.08485281374238574
aa(lp453
F0.009999999999999953
aF0.014142135623730963
aa(lp454
F0.010000000000000009
aF0.022360679774997918
aa(lp455
F0.010000000000000009
aF0.03162277660168377
aa(lp456
F0.04123105625617653
aF0.06082762530298225
aa(lp457
F0.0412310562561766
aF0.06324555320336764
aa(lp458
F0.0
aF0.020000000000000018
aa(lp459
F0.009999999999999995
aF0.17204650534085267
aa(lp460
F0.014142135623730923
aF0.022360679774997894
aa(lp461
F0.010000000000000009
aF0.028284271247461926
aa(lp462
F0.29000000000000004
aF0.3201562118716425
aa(lp463
F0.1562049935181331
aF0.11000000000000001
aa(lp464
F0.0
aF0.020000000000000018
aa(lp465
F0.009999999999999981
aF0.009999999999999981
aa(lp466
F0.014142135623730944
aF0.03
aa(lp467
F0.010000000000000009
aF0.014142135623730944
aa(lp468
F0.010000000000000009
aF0.020000000000000018
aa(lp469
F0.0
aF0.03
aa(lp470
F0.03999999999999998
aF0.020000000000000018
aa(lp471
F0.01414213562373112
aF0.12083045973594578
aa(lp472
F0.01000000000000005
aF0.06000000000000005
aa(lp473
F0.020000000000000018
aF0.12369316876852982
aa(lp474
F0.0
aF0.0
aa(lp475
F0.014142135623730963
aF0.0
aa(lp476
F0.0
aF0.0
aa(lp477
F0.010000000000000009
aF0.0
aa(lp478
F0.0
aF0.0
aa(lp479
F0.0
aF0.0
aa(lp480
F2.220446049250313e-16
aF0.0
aa(lp481
F0.010000000000000009
aF0.0
aa(lp482
F0.009999999999999898
aF0.009999999999999787
aa(lp483
F0.0
aF0.0
aa(lp484
F0.0
aF0.0
aa(lp485
F0.0
aF0.0
aa(lp486
F0.014142135623730963
aF0.010000000000000009
aa(lp487
F0.0
aF0.0
aa(lp488
F0.0
aF0.0
aa(lp489
F0.02000000000000024
aF0.12206555615733693
aa(lp490
F0.0
aF0.0
aa(lp491
F0.0
aF0.0
aa(lp492
F0.010000000000000009
aF0.0
aa(lp493
F0.009999999999999787
aF0.0
aa(lp494
F0.014142135623730963
aF0.0
aa(lp495
F0.0
aF0.0
aa(lp496
F0.0
aF0.0
aa(lp497
F0.0
aF0.0
aa(lp498
F0.04123105625617659
aF0.031622776601683646
aa(lp499
F0.022360679774997817
aF0.022360679774998015
aa(lp500
F0.020000000000000018
aF0.07071067811865478
aa(lp501
F0.0
aF0.020000000000000018
aa(lp502
F0.014142135623730885
aF0.010000000000000009
aa(lp503
F5.551115123125783e-17
aF0.019999999999999962
aa(lp504
F0.0
aF0.010000000000000009
aa(lp505
F0.0
aF0.020000000000000018
aa(lp506
F0.0
aF0.010000000000000009
aa(lp507
F1.3877787807814457e-17
aF0.03162277660168382
aa(lp508
F0.010000000000000009
aF0.022360679774997904
aa(lp509
F0.010000000000000009
aF0.022360679774997894
aa(lp510
F0.009999999999999995
aF0.0316227766016838
aa(lp511
F0.014142135623730807
aF0.05385164807134488
aa(lp512
F2.220446049250313e-16
aF0.036055512754639876
aa(lp513
F0.07211102550927986
aF0.17117242768623706
aa(lp514
F0.010000000000000009
aF0.022360679774997918
aa(lp515
F0.010000000000000009
aF0.022360679774997918
aa(lp516
F0.049999999999999975
aF0.036055512754639925
aa(lp517
F0.03162277660168377
aF0.05999999999999994
aa(lp518
F0.014142135623730885
aF0.06324555320336761
aa(lp519
F0.010000000000000009
aF0.020000000000000018
aa(lp520
F0.009999999999999787
aF0.17029386365926416
aa(lp521
F0.0
aF0.0
aa(lp522
F0.0
aF0.0
aa(lp523
F0.0
aF0.0
aa(lp524
F0.0
aF0.0
aa(lp525
F0.0
aF0.0
aa(lp526
F2.220446049250313e-16
aF0.0
aa(lp527
F0.0
aF0.0
aa(lp528
F0.0
aF0.0
aa(lp529
F0.014142135623730963
aF0.0
aa(lp530
F0.009999999999999787
aF0.009999999999999787
aa(lp531
F0.010000000000000009
aF0.031622776601683646
aa(lp532
F0.010000000000000009
aF0.010000000000000009
aa(lp533
F0.05099019513592785
aF0.022360679774997918
aa(lp534
F0.014142135623730963
aF0.028284271247461926
aa(lp535
F0.0
aF0.022360679774997918
aa(lp536
F0.010000000000000009
aF0.044721359549995836
aa(lp537
F0.0
aF0.0316227766016838
aa(lp538
F0.0
aF0.0316227766016838
aa(lp539
F0.0
aF0.0316227766016838
aa(lp540
F0.05099019513592784
aF0.05830951894845304
aa(lp541
F0.014142135623730963
aF0.022360679774997918
aa(lp542
F0.010000000000000009
aF0.010000000000000009
aa(lp543
F0.014142135623730923
aF0.10295630140987004
aa(lp544
F0.0
aF0.010000000000000009
aa(lp545
F0.0
aF0.0
aa(lp546
F0.010000000000000009
aF0.0
aa(lp547
F0.0
aF0.0
aa(lp548
F0.0
aF0.0
aa(lp549
F0.0
aF0.0
aa(lp550
F0.0
aF0.0
aa(lp551
F0.0
aF0.0
aa(lp552
F0.009999999999999787
aF0.009999999999999787
aa(lp553
F0.09999999999999987
aF0.014142135623730963
aa(lp554
F0.031622776601683805
aF0.1503329637837291
aa(lp555
F0.010000000000000009
aF0.020000000000000018
aa(lp556
F0.010000000000000009
aF0.010000000000000009
aa(lp557
F0.010000000000000009
aF0.020000000000000018
aa(lp558
F0.010000000000000009
aF0.020000000000000018
aa(lp559
F0.010000000000000009
aF0.010000000000000009
aa(lp560
F0.010000000000000009
aF0.031622776601683715
aa(lp561
F0.0
aF0.020000000000000018
aa(lp562
F0.009999999999999898
aF0.08602325267042628
aa(lp563
F0.014142135623730885
aF0.020000000000000018
aa(lp564
F0.010000000000000009
aF0.014142135623730963
aa(lp565
F0.010000000000000009
aF0.08602325267042629
aa(lp566
F0.0
aF0.0
aa(lp567
F0.0
aF0.0
aa(lp568
F0.010000000000000009
aF0.0
aa(lp569
F0.0
aF0.0
aa(lp570
F2.220446049250313e-16
aF0.0
aa(lp571
F0.0
aF0.0
aa(lp572
F0.0
aF0.0
aa(lp573
F0.0
aF0.0
aa(lp574
F0.009999999999999787
aF0.009999999999999787
aa(lp575
F0.04242640687119265
aF0.014142135623730963
aa(lp576
F0.014142135623730963
aF0.06403124237432853
aa(lp577
F2.7755575615628914e-17
aF0.014142135623730944
aa(lp578
F0.010000000000000037
aF0.022360679774997918
aa(lp579
F0.010000000000000009
aF0.014142135623730963
aa(lp580
F0.010000000000000009
aF0.022360679774997918
aa(lp581
F0.010000000000000064
aF0.014142135623730923
aa(lp582
F0.010000000000000037
aF0.022360679774997918
aa(lp583
F0.010000000000000009
aF0.014142135623730963
aa(lp584
F0.0
aF0.014142135623730963
aa(lp585
F0.15132745950421558
aF0.041231056256176644
aa(lp586
F0.009999999999999953
aF0.019999999999999962
aa(lp587
F0.13601470508735444
aF0.05099019513592784
aa(lp588
F0.06403124237432849
aF0.07071067811865474
aa(lp589
F0.010000000000000009
aF0.014142135623730923
aa(lp590
F0.010000000000000009
aF0.049999999999999864
aa(lp591
F2.7755575615628914e-17
aF0.03605551275463991
aa(lp592
F0.020000000000000018
aF0.022360679774997918
aa(lp593
F0.010000000000000009
aF0.014142135623730944
aa(lp594
F0.01414213562373112
aF0.022360679774997918
aa(lp595
F0.0
aF0.014142135623730963
aa(lp596
F0.010000000000000009
aF0.014142135623730944
aa(lp597
F0.020000000000000018
aF0.07280109889280503
aa(lp598
F0.022360679774997918
aF0.014142135623730963
aa(lp599
F0.009999999999999953
aF0.022360679774997894
aa(lp600
F0.014142135623730963
aF0.014142135623730963
aa(lp601
F2.220446049250313e-16
aF0.014142135623730963
aa(lp602
F0.014142135623730963
aF0.022360679774997918
aa(lp603
F0.0
aF0.014142135623730963
aa(lp604
F0.014142135623730963
aF0.036055512754639876
aa(lp605
F0.010000000000000009
aF0.010000000000000009
aa(lp606
F0.041231056256176644
aF0.07615773105863904
aa(lp607
F0.014142135623730963
aF0.041231056256176644
aa(lp608
F0.022360679774997918
aF0.0
aa(lp609
F0.010000000000000009
aF0.0
aa(lp610
F0.010000000000000009
aF0.0
aa(lp611
F0.010000000000000009
aF0.0
aa(lp612
F0.010000000000000009
aF0.0
aa(lp613
F0.0
aF0.0
aa(lp614
F0.010000000000000009
aF0.0
aa(lp615
F0.010000000000000009
aF0.0
aa(lp616
F0.010000000000000231
aF0.009999999999999787
aa(lp617
F0.010000000000000009
aF0.0
aa(lp618
F0.014142135623731041
aF0.0
aa(lp619
F0.022360679774997817
aF0.022360679774997918
aa(lp620
F0.03000000000000025
aF0.022360679774997918
aa(lp621
F0.014142135623730963
aF0.130384048104053
aa(lp622
F0.014142135623730923
aF0.036055512754639925
aa(lp623
F0.0
aF0.014142135623730963
aa(lp624
F0.0
aF0.014142135623730963
aa(lp625
F0.10000000000000005
aF0.12806248474865703
aa(lp626
F0.020000000000000018
aF0.03162277660168382
aa(lp627
F0.15620499351813305
aF0.04242640687119281
aa(lp628
F0.010000000000000009
aF0.020000000000000018
aa(lp629
F0.009999999999999898
aF0.029999999999999916
aa(lp630
F0.0
aF0.020000000000000018
aa(lp631
F0.022360679774997918
aF0.03162277660168382
aa(lp632
F0.014142135623731041
aF0.022360679774997918
aa(lp633
F0.010000000000000064
aF0.009999999999999953
aa(lp634
F0.0
aF0.020000000000000018
aa(lp635
F0.010000000000000009
aF0.020000000000000018
aa(lp636
F0.010000000000000009
aF0.019999999999999962
aa(lp637
F0.014142135623730963
aF0.030000000000000027
aa(lp638
F0.06324555320336764
aF0.09055385138137413
aa(lp639
F0.014142135623730982
aF0.03999999999999998
aa(lp640
F5.551115123125783e-17
aF0.010000000000000009
aa(lp641
F0.0
aF0.010000000000000009
aa(lp642
F0.15297058540778355
aF0.07999999999999996
aa(lp643
F0.010000000000000009
aF0.0316227766016838
aa(lp644
F0.028284271247461905
aF0.09433981132056611
aa(lp645
F0.04999999999999994
aF0.08062257748298557
aa(lp646
F0.08062257748298551
aF0.1216552506059644
aa(lp647
F0.06082762530298227
aF0.04999999999999993
aa(lp648
F0.5255473337388366
aF0.35227829907617086
aa(lp649
F0.5385164807134504
aF0.0848528137423857
aa(lp650
F0.21189620100417084
aF0.12083045973594568
aa(lp651
F0.009999999999999898
aF0.049999999999999975
aa(lp652
F0.010000000000000009
aF0.022360679774997918
aa(lp653
F0.14422205101855945
aF0.08246211251235307
aa(lp654
F0.010000000000000009
aF0.014142135623730963
aa(lp655
F0.009999999999999953
aF0.020000000000000018
aa(lp656
F0.014142135623730963
aF0.014142135623730963
aa(lp657
F0.010000000000000231
aF0.022360679774997918
aa(lp658
F0.010000000000000009
aF0.014142135623730923
aa(lp659
F0.0
aF0.014142135623730963
aa(lp660
F0.028284271247461888
aF0.07810249675906661
aa(lp661
F0.0
aF0.0
aa(lp662
F0.0
aF0.0
aa(lp663
F0.0
aF0.0
aa(lp664
F0.0
aF0.0
aa(lp665
F0.0
aF0.0
aa(lp666
F0.0
aF0.0
aa(lp667
F0.0
aF0.0
aa(lp668
F2.220446049250313e-16
aF0.0
aa(lp669
F0.028284271247461926
aF0.010000000000000009
aa(lp670
F0.020000000000000018
aF0.014142135623730963
aa(lp671
F0.010000000000000009
aF0.014142135623730952
aa(lp672
F0.022360679774997904
aF0.0
aa(lp673
F0.0
aF0.0316227766016838
aa(lp674
F1.3877787807814457e-17
aF0.014142135623730952
aa(lp675
F0.010000000000000009
aF0.022360679774997904
aa(lp676
F0.010000000000000009
aF0.014142135623730796
aa(lp677
F0.014142135623730973
aF0.022360679774997918
aa(lp678
F0.010000000000000023
aF0.014142135623730944
aa(lp679
F1.3877787807814457e-17
aF0.014142135623730963
aa(lp680
F0.020000000000000018
aF0.020000000000000018
aa(lp681
F0.041231056256176644
aF0.0640312423743285
aa(lp682
F0.020000000000000018
aF0.14422205101855962
aa(lp683
F0.0
aF0.010000000000000009
aa(lp684
F0.010000000000000009
aF0.010000000000000009
aa(lp685
F0.010000000000000009
aF0.0
aa(lp686
F0.0
aF0.0
aa(lp687
F0.010000000000000009
aF0.0
aa(lp688
F0.0
aF0.0
aa(lp689
F0.009999999999999787
aF0.0
aa(lp690
F0.01414213562373112
aF0.014142135623731041
aa(lp691
F0.010000000000000009
aF0.036055512754639904
aa(lp692
F1.3877787807814457e-17
aF0.02
aa(lp693
F0.009999999999999995
aF0.014142135623730956
aa(lp694
F0.0
aF0.014142135623730958
aa(lp695
F0.010000000000000009
aF0.010000000000000002
aa(lp696
F0.010000000000000009
aF0.014142135623730952
aa(lp697
F0.0
aF0.014142135623730952
aa(lp698
F0.01414213562373112
aF0.0608276253029822
aa(lp699
F0.0
aF0.0
aa(lp700
F0.010000000000000009
aF0.0
aa(lp701
F0.0
aF0.0
aa(lp702
F0.0
aF0.0
aa(lp703
F0.0
aF0.0
aa(lp704
F0.0
aF0.0
aa(lp705
F0.014142135623730963
aF0.0
aa(lp706
F0.009999999999999787
aF0.0
aa(lp707
F0.09899494936611666
aF0.11661903789690611
aa(lp708
F0.22022715545545238
aF0.09433981132056607
aa(lp709
F0.0
aF0.022360679774997918
aa(lp710
F0.014142135623730923
aF0.022360679774997866
aa(lp711
F0.03162277660168381
aF0.009999999999999981
aa(lp712
F0.019999999999999907
aF0.06708203932499374
aa(lp713
F0.15524174696260026
aF0.07071067811865478
aa(lp714
F1.3877787807814457e-17
aF0.009999999999999995
aa(lp715
F0.03
aF0.04123105625617664
aa(lp716
F0.060827625302982205
aF0.12806248474865703
aa(lp717
F0.009999999999999995
aF0.019999999999999796
aa(lp718
F0.010000000000000009
aF0.010000000000000009
aa(lp719
F0.009999999999999995
aF0.030000000000000027
aa(lp720
F0.009999999999999953
aF0.07810249675906653
aa(lp721
F0.020000000000000018
aF0.11661903789690586
aa(lp722
F0.05830951894845306
aF0.1216552506059644
aa(lp723
F0.028284271247461846
aF0.08246211251235318
aa(lp724
F0.07071067811865467
aF0.030000000000000027
aa(lp725
F0.05999999999999994
aF0.09486832980505146
aa(lp726
F0.010000000000000009
aF0.014142135623730963
aa(lp727
F0.031622776601683784
aF0.2594224354214568
aa(lp728
F0.25495097567963915
aF0.044721359549995836
aa(lp729
F0.020000000000000018
aF0.15000000000000002
aa(lp730
F0.020000000000000018
aF0.04472135954999579
aa(lp731
F0.010000000000000009
aF0.022360679774997918
aa(lp732
F0.010000000000000009
aF0.05999999999999997
aa(lp733
F0.010000000000000009
aF0.019999999999999962
aa(lp734
F0.014142135623730923
aF0.010000000000000009
aa(lp735
F2.7755575615628914e-17
aF0.010000000000000009
aa(lp736
F0.12369316876852976
aF0.044721359549995836
aa(lp737
F0.07280109889280524
aF0.05656854249492385
aa(lp738
F0.010000000000000009
aF0.010000000000000009
aa(lp739
F0.010000000000000009
aF0.022360679774997918
aa(lp740
F0.010000000000000009
aF0.030000000000000027
aa(lp741
F0.0721110255092798
aF0.3354101966249683
aa(lp742
F0.022360679774997918
aF0.2
aa(lp743
F0.0
aF0.0
aa(lp744
F0.010000000000000009
aF0.0
aa(lp745
F0.010000000000000009
aF0.0
aa(lp746
F0.010000000000000009
aF0.0
aa(lp747
F2.220446049250313e-16
aF0.0
aa(lp748
F3.1401849173675503e-16
aF0.0
aa(lp749
F0.04242640687119265
aF0.014142135623730963
aa(lp750
F0.019999999999999796
aF0.06708203932499372
aa(lp751
F0.010000000000000009
aF0.022360679774997918
aa(lp752
F5.551115123125783e-17
aF0.019999999999999962
aa(lp753
F0.014142135623730923
aF0.08246211251235307
aa(lp754
F0.010000000000000009
aF0.020000000000000018
aa(lp755
F0.01000000000000003
aF0.10295630140986987
aa(lp756
F0.010000000000000009
aF0.014142135623730963
aa(lp757
F0.009999999999999787
aF0.014142135623730963
aa(lp758
F0.07071067811865461
aF0.028284271247461915
aa(lp759
F0.014142135623730963
aF0.0223606797749979
aa(lp760
F1.3877787807814457e-17
aF0.014142135623730958
aa(lp761
F0.050000000000000044
aF0.050000000000000024
aa(lp762
F0.4588027898781785
aF0.1565247584249853
aa(lp763
F0.01414213562373108
aF0.10440306508910549
aa(lp764
F0.022360679774997918
aF0.03162277660168382
aa(lp765
F0.028284271247461905
aF0.09848857801796113
aa(lp766
F0.014142135623730952
aF0.009999999999999995
aa(lp767
F0.030000000000000027
aF0.07810249675906653
aa(lp768
F0.010000000000000009
aF0.0
aa(lp769
F0.010000000000000009
aF0.0
aa(lp770
F0.010000000000000009
aF0.0
aa(lp771
F0.0
aF0.0
aa(lp772
F2.220446049250313e-16
aF0.0
aa(lp773
F0.0
aF0.0
aa(lp774
F0.0
aF0.0
aa(lp775
F0.10816653826391968
aF0.050000000000000044
aa(lp776
F0.019999999999999796
aF0.022360679774997817
aa(lp777
F0.17117242768623694
aF0.1802775637731995
aa(lp778
F0.07
aF0.11704699910719624
aa(lp779
F0.010000000000000009
aF0.022360679774997918
aa(lp780
F0.0
aF0.014142135623730963
aa(lp781
F0.014142135623730923
aF0.044721359549995836
aa(lp782
F0.05656854249492383
aF0.020000000000000018
aa(lp783
F0.0707106781186547
aF0.0
aa(lp784
F0.010000000000000009
aF0.020000000000000018
aa(lp785
F0.15524174696260026
aF0.036055512754639925
aa(lp786
F0.010000000000000009
aF0.04000000000000001
aa(lp787
F0.014142135623730973
aF0.0
aa(lp788
F0.040000000000000036
aF0.0316227766016838
aa(lp789
F0.010000000000000009
aF0.03
aa(lp790
F0.010000000000000009
aF0.009999999999999995
aa(lp791
F0.009999999999999995
aF0.010000000000000009
aa(lp792
F0.09999999999999998
aF0.010000000000000009
aa(lp793
F0.1341640786499874
aF0.04123105625617662
aa(lp794
F0.27313000567495316
aF0.11
aa(lp795
F0.05099019513592784
aF0.10049875621120888
aa(lp796
F0.11045361017187265
aF0.03605551275463992
aa(lp797
F0.010000000000000009
aF0.014142135623730958
aa(lp798
F0.09486832980505149
aF0.07071067811865478
aa(lp799
F0.0
aF0.010000000000000009
aa(lp800
F0.014142135623730963
aF0.0
aa(lp801
F0.0
aF0.0
aa(lp802
F0.0
aF0.0
aa(lp803
F0.0
aF0.0
aa(lp804
F0.0
aF0.0
aa(lp805
F0.0
aF0.0
aa(lp806
F0.0
aF0.0
aa(lp807
F0.0
aF0.0
aa(lp808
F0.0
aF0.010000000000000009
aa(lp809
F0.009999999999999953
aF0.010000000000000009
aa(lp810
F0.010000000000000009
aF0.010000000000000009
aa(lp811
F0.0
aF0.020000000000000018
aa(lp812
F0.010000000000000064
aF0.009999999999999953
aa(lp813
F5.551115123125783e-17
aF0.020000000000000018
aa(lp814
F0.0
aF0.010000000000000009
aa(lp815
F0.010000000000000009
aF0.020000000000000018
aa(lp816
F0.0
aF0.02999999999999997
aa(lp817
F0.0
aF0.0
aa(lp818
F0.0
aF0.0
aa(lp819
F0.0
aF0.0
aa(lp820
F0.0
aF0.0
aa(lp821
F0.0
aF0.0
aa(lp822
F0.0
aF0.0
aa(lp823
F0.0
aF0.010000000000000009
aa(lp824
F0.0
aF0.0
aa(lp825
F0.08602325267042613
aF0.010000000000000009
aa(lp826
F0.11401754250991382
aF0.06324555320336754
aa(lp827
F0.014142135623730885
aF0.022360679774997817
aa(lp828
F0.03162277660168371
aF0.14560219778561026
aa(lp829
F0.03162277660168376
aF0.060000000000000005
aa(lp830
F0.010000000000000009
aF0.010000000000000009
aa(lp831
F0.014142135623730963
aF0.014142135623730963
aa(lp832
F0.010000000000000009
aF0.022360679774997866
aa(lp833
F0.010000000000000009
aF0.022360679774997918
aa(lp834
F0.010000000000000009
aF0.08062257748298551
aa(lp835
F0.07280109889280509
aF0.050000000000000044
aa(lp836
F0.05385164807134498
aF0.07071067811865482
aa(lp837
F0.009999999999999787
aF0.010000000000000009
aa(lp838
F0.022360679774997966
aF0.11180339887498933
aa(lp839
F0.2563201123595258
aF0.08999999999999997
aa(lp840
F0.04123105625617665
aF0.08944271909999157
aa(lp841
F5.551115123125783e-17
aF0.019999999999999962
aa(lp842
F0.010000000000000009
aF0.022360679774997918
aa(lp843
F0.010000000000000009
aF0.01999999999999999
aa(lp844
F2.7755575615628914e-17
aF0.0316227766016838
aa(lp845
F0.014142135623730923
aF0.014142135623730963
aa(lp846
F0.010000000000000009
aF0.01999999999999999
aa(lp847
F0.010000000000000009
aF0.03
aa(lp848
F0.10295630140987007
aF0.14866068747318503
aa(lp849
F0.0
aF0.014142135623730963
aa(lp850
F0.014142135623731041
aF0.02236067977499784
aa(lp851
F0.010000000000000009
aF0.022360679774997918
aa(lp852
F0.010000000000000009
aF0.022360679774997918
aa(lp853
F0.010000000000000009
aF0.014142135623730963
aa(lp854
F0.009999999999999953
aF0.022360679774997866
aa(lp855
F0.009999999999999981
aF0.014142135623730963
aa(lp856
F0.022360679774997918
aF0.020000000000000018
aa(lp857
F0.010000000000000009
aF0.014142135623730963
aa(lp858
F5.551115123125783e-17
aF0.014142135623730923
aa(lp859
F0.03999999999999998
aF0.11180339887498958
aa(lp860
F0.09848857801796122
aF0.07810249675906661
aa(lp861
F0.0
aF0.022360679774997918
aa(lp862
F0.02236067977499762
aF0.050990195135927674
aa(lp863
F0.014142135623730963
aF0.020000000000000018
aa(lp864
F0.010000000000000009
aF0.020000000000000018
aa(lp865
F0.010000000000000009
aF0.07000000000000006
aa(lp866
F0.0
aF0.020000000000000018
aa(lp867
F0.010000000000000009
aF0.010000000000000009
aa(lp868
F0.010000000000000009
aF0.03162277660168382
aa(lp869
F0.022360679774998015
aF0.009999999999999787
aa(lp870
F0.010000000000000231
aF0.0
aa(lp871
F0.010000000000000009
aF0.0
aa(lp872
F0.010000000000000009
aF0.0
aa(lp873
F0.010000000000000009
aF0.0
aa(lp874
F0.010000000000000009
aF0.028284271247461926
aa(lp875
F0.020000000000000018
aF0.08944271909999157
aa(lp876
F0.009999999999999898
aF0.014142135623730807
aa(lp877
F0.010000000000000009
aF0.022360679774998015
aa(lp878
F0.010000000000000009
aF0.022360679774997817
aa(lp879
F2.482534153247273e-16
aF0.022360679774997918
aa(lp880
F0.03162277660168382
aF0.03605551275463974
aa(lp881
F0.041231056256176644
aF0.11401754250991383
aa(lp882
F1.3877787807814457e-17
aF0.028284271247461912
aa(lp883
F0.02236067977499791
aF0.028284271247461915
aa(lp884
F0.17204650534085245
aF0.04242640687119277
aa(lp885
F0.08944271909999156
aF0.022360679774997918
aa(lp886
F0.24041630560342614
aF0.041231056256176644
aa(lp887
F0.07280109889280509
aF0.014142135623730963
aa(lp888
F0.03605551275463995
aF0.030000000000000027
aa(lp889
F0.010000000000000009
aF0.014142135623730963
aa(lp890
F0.010000000000000009
aF0.022360679774997918
aa(lp891
F0.010000000000000009
aF0.014142135623730963
aa(lp892
F0.009999999999999953
aF0.022360679774997866
aa(lp893
F0.009999999999999953
aF0.014142135623730963
aa(lp894
F0.010000000000000009
aF0.010000000000000009
aa(lp895
F0.0
aF0.022360679774997918
aa(lp896
F0.0
aF0.014142135623730963
aa(lp897
F2.220446049250313e-16
aF0.04472135954999568
aa(lp898
F0.014142135623730807
aF0.053851648071345036
aa(lp899
F0.07615773105863903
aF0.08602325267042629
aa(lp900
F0.014142135623730923
aF0.022360679774997866
aa(lp901
F0.010000000000000009
aF0.020000000000000018
aa(lp902
F5.551115123125783e-17
aF0.020000000000000018
aa(lp903
F0.010000000000000009
aF0.07
aa(lp904
F0.010000000000000009
aF0.010000000000000009
aa(lp905
F0.0761577310586391
aF0.1131370849898477
aa(lp906
F0.022360679774997918
aF0.014142135623730963
aa(lp907
F0.014142135623730885
aF0.022360679774997866
aa(lp908
F0.010000000000000009
aF0.010000000000000009
aa(lp909
F0.08485281374238572
aF0.15811388300841886
aa(lp910
F0.044721359549995635
aF0.06708203932499375
aa(lp911
F0.014142135623730885
aF0.05385164807134509
aa(lp912
F2.220446049250313e-16
aF0.0
aa(lp913
F0.014142135623730963
aF0.0
aa(lp914
F0.0
aF0.0
aa(lp915
F0.0
aF0.0
aa(lp916
F0.010000000000000009
aF0.010000000000000009
aa(lp917
F0.009999999999999787
aF0.0
aa(lp918
F0.01414213562373112
aF0.0
aa(lp919
F0.010000000000000009
aF0.010000000000000009
aa(lp920
F0.009999999999999981
aF0.010000000000000009
aa(lp921
F0.014142135623730944
aF0.0
aa(lp922
F0.009999999999999981
aF0.0
aa(lp923
F0.022360679774997894
aF0.010000000000000009
aa(lp924
F0.010000000000000009
aF0.014142135623730963
aa(lp925
F0.014142135623730963
aF0.07211102550927975
aa(lp926
F0.010000000000000009
aF0.0
aa(lp927
F0.010000000000000009
aF0.0
aa(lp928
F0.010000000000000009
aF0.0
aa(lp929
F0.0
aF0.0
aa(lp930
F0.010000000000000009
aF0.0
aa(lp931
F0.010000000000000009
aF0.0
aa(lp932
F0.0
aF0.0
aa(lp933
F0.010000000000000009
aF0.0
aa(lp934
F0.09848857801796103
aF0.009999999999999787
aa(lp935
F5.551115123125783e-17
aF0.07615773105863916
aa(lp936
F1.1102230246251565e-16
aF0.020000000000000018
aa(lp937
F0.010000000000000009
aF0.010000000000000009
aa(lp938
F0.009999999999999787
aF0.028284271247461926
aa(lp939
F2.7755575615628914e-17
aF0.036055512754639925
aa(lp940
F0.014142135623730944
aF0.028284271247461905
aa(lp941
F0.009999999999999787
aF0.10440306508910538
aa(lp942
F0.010000000000000009
aF0.014142135623730952
aa(lp943
F0.02828427124746194
aF0.12083045973594567
aa(lp944
F0.06708203932499365
aF0.04242640687119287
aa(lp945
F0.010000000000000009
aF0.010000000000000009
aa(lp946
F0.14317821063276356
aF0.08544003745317534
aa(lp947
F0.05385164807134508
aF0.041231056256176644
aa(lp948
F0.12083045973594571
aF0.08062257748298546
aa(lp949
F0.014142135623730798
aF0.09219544457292887
aa(lp950
F0.0
aF0.022360679774997918
aa(lp951
F0.009999999999999787
aF0.014142135623730944
aa(lp952
F0.16401219466856715
aF0.09433981132056612
aa(lp953
F0.0
aF0.010000000000000009
aa(lp954
F0.014142135623730963
aF0.022360679774997918
aa(lp955
F0.010000000000000009
aF0.022360679774997866
aa(lp956
F0.0
aF0.014142135623730963
aa(lp957
F0.010000000000000009
aF0.0
aa(lp958
F0.010000000000000009
aF0.0
aa(lp959
F0.0
aF0.0
aa(lp960
F0.0
aF0.0
aa(lp961
F0.010000000000000009
aF0.0
aa(lp962
F0.0
aF0.0
aa(lp963
F0.0
aF0.0
aa(lp964
F0.050000000000000176
aF0.010000000000000009
aa(lp965
F0.022360679774997866
aF0.08000000000000007
aa(lp966
F0.009999999999999898
aF0.030000000000000027
aa(lp967
F1.1102230246251565e-16
aF0.019999999999999907
aa(lp968
F0.0
aF0.020000000000000018
aa(lp969
F0.0
aF0.030000000000000027
aa(lp970
F0.009999999999999898
aF0.030000000000000027
aa(lp971
F0.009999999999999981
aF0.05000000000000003
aa(lp972
F0.010000000000000009
aF0.022360679774997918
aa(lp973
F0.010000000000000009
aF0.014142135623730944
aa(lp974
F0.014142135623730807
aF0.022360679774997894
aa(lp975
F0.0
aF0.0
aa(lp976
F0.014142135623730963
aF0.0
aa(lp977
F0.014142135623730963
aF0.0
aa(lp978
F0.0
aF0.0
aa(lp979
F0.0
aF0.0
aa(lp980
F0.010000000000000009
aF0.0
aa(lp981
F0.010000000000000009
aF0.0
aa(lp982
F0.0
aF0.0
aa(lp983
F0.010000000000000009
aF0.010000000000000009
aa(lp984
F0.0
aF0.022360679774997918
aa(lp985
F0.022360679774997918
aF0.06324555320336754
aa(lp986
F0.014142135623730923
aF0.022360679774997918
aa(lp987
F0.050990195135927854
aF0.05
aa(lp988
F0.03605551275463991
aF0.014142135623730952
aa(lp989
F0.06082762530298221
aF0.05099019513592784
aa(lp990
F0.060827625302982184
aF0.15132745950421553
aa(lp991
F0.020000000000000018
aF0.05656854249492381
aa(lp992
F0.11704699910719625
aF0.022360679774997918
aa(lp993
F0.014142135623730963
aF0.06708203932499374
aa(lp994
F0.036055512754639786
aF0.04999999999999999
aa(lp995
F0.04000000000000006
aF0.05099019513592784
aa(lp996
F0.020000000000000018
aF0.05099019513592789
aa(lp997
F0.010000000000000009
aF0.04242640687119287
aa(lp998
F0.010000000000000009
aF0.044721359549995836
aa(lp999
F0.0
aF0.014142135623730963
aa(lp1000
F0.10295630140986999
aF0.0781024967590664
aa(lp1001
F0.020000000000000018
aF0.036055512754639876
aa(lp1002
F0.0
aF0.0
aa(lp1003
F0.010000000000000009
aF0.0
aa(lp1004
F0.010000000000000009
aF0.0
aa(lp1005
F0.0
aF0.0
aa(lp1006
F0.010000000000000009
aF0.0
aa(lp1007
F0.0
aF0.0
aa(lp1008
F0.0
aF0.0
aa(lp1009
F0.14764823060233404
aF0.010000000000000009
aa(lp1010
F0.010000000000000009
aF0.08000000000000007
aa(lp1011
F0.010000000000000009
aF0.009999999999999995
aa(lp1012
F0.094339811320566
aF0.030000000000000027
aa(lp1013
F0.11401754250991403
aF0.10770329614269002
aa(lp1014
F0.028284271247461905
aF0.0728010988928052
aa(lp1015
F0.0
aF0.0
aa(lp1016
F0.0
aF0.0
aa(lp1017
F0.0
aF0.0
aa(lp1018
F0.0
aF0.0
aa(lp1019
F0.0
aF0.0
aa(lp1020
F0.0
aF0.0
aa(lp1021
F0.0
aF0.0
aa(lp1022
F0.0
aF0.0
aa(lp1023
F0.0
aF0.0
aa(lp1024
F0.08944271909999187
aF0.010000000000000009
aa(lp1025
F0.0
aF0.041231056256176644
aa(lp1026
F0.010000000000000009
aF0.020000000000000018
aa(lp1027
F0.0
aF0.020000000000000018
aa(lp1028
F0.009999999999999898
aF0.010000000000000009
aa(lp1029
F0.014142135623730963
aF0.022360679774997918
aa(lp1030
F0.010000000000000009
aF0.010000000000000009
aa(lp1031
F1.1102230246251565e-16
aF0.019999999999999907
aa(lp1032
F0.10816653826391966
aF0.022360679774997918
aa(lp1033
F0.022360679774997904
aF0.022360679774997894
aa(lp1034
F0.04472135954999582
aF0.050990195135927896
aa(lp1035
F0.010000000000000009
aF0.022360679774997918
aa(lp1036
F0.0
aF0.0
aa(lp1037
F0.0
aF0.0
aa(lp1038
F0.0
aF0.0
aa(lp1039
F0.010000000000000009
aF0.0
aa(lp1040
F0.010000000000000009
aF0.0
aa(lp1041
F2.220446049250313e-16
aF0.0
aa(lp1042
F2.220446049250313e-16
aF0.0
aa(lp1043
F0.0
aF0.010000000000000009
aa(lp1044
F0.0
aF0.0
aa(lp1045
F0.010000000000000009
aF0.010000000000000009
aa(lp1046
F0.010000000000000009
aF0.010000000000000009
aa(lp1047
F0.0
aF0.020000000000000018
aa(lp1048
F5.551115123125783e-17
aF0.014142135623730963
aa(lp1049
F0.010000000000000064
aF0.014142135623730963
aa(lp1050
F2.7755575615628914e-17
aF0.01999999999999999
aa(lp1051
F0.010000000000000009
aF0.022360679774997918
aa(lp1052
F0.07810249675906644
aF0.10198039027185578
aa(lp1053
F2.220446049250313e-16
aF0.020000000000000018
aa(lp1054
F0.01
aF0.030000000000000027
aa(lp1055
F0.014142135623730963
aF0.053851648071345036
aa(lp1056
F0.010000000000000009
aF0.0
aa(lp1057
F0.010000000000000009
aF0.0
aa(lp1058
F0.0
aF0.009999999999999787
aa(lp1059
F0.0
aF0.0
aa(lp1060
F0.010000000000000009
aF0.0
aa(lp1061
F0.014142135623730963
aF0.0
aa(lp1062
F0.014142135623730963
aF0.0
aa(lp1063
F0.010000000000000231
aF0.0
aa(lp1064
F0.05385164807134507
aF0.022360679774997918
aa(lp1065
F0.022360679774997817
aF0.014142135623730963
aa(lp1066
F0.0
aF0.022360679774997918
aa(lp1067
F0.010000000000000009
aF0.014142135623730944
aa(lp1068
F0.0806225774829855
aF0.09899494936611668
aa(lp1069
F2.7755575615628914e-17
aF0.036055512754639925
aa(lp1070
F0.022360679774997866
aF0.10440306508910546
aa(lp1071
F0.010000000000000009
aF0.014142135623730963
aa(lp1072
F1.1102230246251565e-16
aF0.07810249675906653
aa(lp1073
F0.010000000000000009
aF0.06000000000000005
aa(lp1074
F0.009999999999999898
aF0.014142135623730885
aa(lp1075
F0.0
aF0.0
aa(lp1076
F0.010000000000000009
aF0.0
aa(lp1077
F0.010000000000000009
aF0.0
aa(lp1078
F0.0
aF0.0
aa(lp1079
F2.220446049250313e-16
aF0.0
aa(lp1080
F0.0
aF0.0
aa(lp1081
F0.010000000000000009
aF0.0
aa(lp1082
F0.014142135623730963
aF0.0
aa(lp1083
F0.0
aF0.0
aa(lp1084
F0.036055512754639925
aF0.009999999999999898
aa(lp1085
F0.0
aF0.010000000000000009
aa(lp1086
F0.009999999999999898
aF0.0
aa(lp1087
F0.0
aF0.0
aa(lp1088
F0.014142135623730952
aF0.0
aa(lp1089
F0.010000000000000009
aF0.0
aa(lp1090
F0.022360679774997894
aF0.010000000000000009
aa(lp1091
F0.0
aF0.0
aa(lp1092
F0.0
aF0.0
aa(lp1093
F0.0
aF0.0
aa(lp1094
F0.0
aF0.0
aa(lp1095
F0.0
aF0.0
aa(lp1096
F0.0
aF0.0
aa(lp1097
F0.0
aF0.0
aa(lp1098
F0.0
aF0.0
aa(lp1099
F0.0
aF0.0
aa(lp1100
F0.01414213562373112
aF0.01414213562373112
aa(lp1101
F0.04123105625617659
aF0.010000000000000009
aa(lp1102
F0.014142135623730885
aF0.06708203932499375
aa(lp1103
F0.014142135623730885
aF0.06000000000000005
aa(lp1104
F0.13038404810405296
aF0.028284271247461926
aa(lp1105
F0.014142135623730923
aF0.022360679774997918
aa(lp1106
F0.010000000000000009
aF0.010000000000000009
aa(lp1107
F5.551115123125783e-17
aF0.03162277660168382
aa(lp1108
F5.551115123125783e-17
aF0.014142135623730963
aa(lp1109
F0.1615549442140352
aF0.04123105625617664
aa(lp1110
F0.010000000000000009
aF0.02236067977499791
aa(lp1111
F0.010000000000000009
aF0.02236067977499791
aa(lp1112
F0.014142135623731115
aF0.042426406871192715
aa(lp1113
F0.03162277660168382
aF0.03
aa(lp1114
F0.020000000000000004
aF0.03
aa(lp1115
F0.010000000000000009
aF0.03
aa(lp1116
F0.14866068747318514
aF0.050990195135927674
aa(lp1117
F0.34
aF0.0608276253029822
aa(lp1118
F0.1802775637731994
aF0.130384048104053
aa(lp1119
F0.0
aF0.1216552506059645
aa(lp1120
F0.0
aF0.020000000000000018
aa(lp1121
F5.551115123125783e-17
aF0.020000000000000018
aa(lp1122
F0.010000000000000009
aF0.010000000000000009
aa(lp1123
F0.014142135623730923
aF0.019999999999999962
aa(lp1124
F0.009999999999999953
aF0.010000000000000009
aa(lp1125
F0.022360679774997966
aF0.13341664064126343
aa(lp1126
F0.014142135623730944
aF0.022360679774997918
aa(lp1127
F0.0
aF0.0
aa(lp1128
F0.014142135623730963
aF0.0
aa(lp1129
F0.010000000000000009
aF0.0
aa(lp1130
F0.0
aF0.0
aa(lp1131
F0.0
aF0.0
aa(lp1132
F0.010000000000000009
aF0.0
aa(lp1133
F0.014142135623730963
aF0.0
aa(lp1134
F0.014142135623730963
aF0.0
aa(lp1135
F0.0
aF0.0
aa(lp1136
F0.036055512754639925
aF0.010000000000000009
aa(lp1137
F0.014142135623730885
aF0.014142135623730885
aa(lp1138
F0.0
aF0.010000000000000009
aa(lp1139
F0.0
aF0.1486606874731851
aa(lp1140
F0.010000000000000009
aF0.020000000000000018
aa(lp1141
F0.010000000000000009
aF0.014142135623730963
aa(lp1142
F0.0
aF0.020000000000000018
aa(lp1143
F0.010000000000000009
aF0.010000000000000009
aa(lp1144
F1.1102230246251565e-16
aF0.019999999999999907
aa(lp1145
F0.0
aF0.020000000000000018
aa(lp1146
F0.0
aF0.014142135623730963
aa(lp1147
F0.0
aF0.030000000000000027
aa(lp1148
F0.050000000000000114
aF0.040000000000000036
aa(lp1149
F0.01414213562373111
aF0.028284271247461915
aa(lp1150
F0.014142135623730807
aF0.03
aa(lp1151
F0.022360679774997894
aF0.040000000000000036
aa(lp1152
F0.010000000000000009
aF0.010000000000000009
aa(lp1153
F0.17262676501632085
aF0.05999999999999983
aa(lp1154
F0.25612496949731384
aF0.050990195135927896
aa(lp1155
F0.014142135623730963
aF0.09055385138137413
aa(lp1156
F0.0
aF0.020000000000000018
aa(lp1157
F0.010000000000000009
aF0.030000000000000027
aa(lp1158
F0.010000000000000009
aF0.08602325267042635
aa(lp1159
F0.0
aF0.020000000000000018
aa(lp1160
F0.0
aF0.020000000000000018
aa(lp1161
F0.014142135623730963
aF0.07071067811865471
aa(lp1162
F0.0
aF0.020000000000000018
aa(lp1163
F0.010000000000000009
aF0.020000000000000018
aa(lp1164
F1.1102230246251565e-16
aF0.020000000000000018
aa(lp1165
F0.010000000000000009
aF0.03162277660168377
aa(lp1166
F0.0
aF0.020000000000000018
aa(lp1167
F5.551115123125783e-17
aF0.019999999999999962
aa(lp1168
F0.014142135623730963
aF0.014142135623730963
aa(lp1169
F0.014142135623731003
aF0.020000000000000018
aa(lp1170
F0.0
aF0.020000000000000018
aa(lp1171
F0.014142135623730845
aF0.014142135623730767
aa(lp1172
F5.551115123125783e-17
aF0.020000000000000018
aa(lp1173
F0.010000000000000009
aF0.010000000000000009
aa(lp1174
F0.0
aF0.020000000000000018
aa(lp1175
F2.220446049250313e-16
aF0.03162277660168377
aa(lp1176
F0.06324555320336755
aF0.07000000000000006
aa(lp1177
F0.028284271247461888
aF0.050990195135927785
aa(lp1178
F0.010000000000000009
aF0.010000000000000009
aa(lp1179
F0.0
aF0.022360679774997918
aa(lp1180
F0.07211102550928003
aF0.056568542494923775
aa(lp1181
F0.07280109889280528
aF0.1581138830084191
aa(lp1182
F0.022360679774997918
aF0.044721359549995836
aa(lp1183
F0.0
aF0.0
aa(lp1184
F0.010000000000000009
aF0.0
aa(lp1185
F0.010000000000000009
aF0.0
aa(lp1186
F0.014142135623730963
aF0.0
aa(lp1187
F0.0
aF0.0
aa(lp1188
F0.010000000000000009
aF0.0
aa(lp1189
F0.009999999999999787
aF0.009999999999999787
aa(lp1190
F0.010000000000000009
aF0.0
aa(lp1191
F0.0
aF0.0
aa(lp1192
F0.07211102550927985
aF0.022360679774997918
aa(lp1193
F0.036055512754639925
aF0.036055512754639925
aa(lp1194
F0.022360679774997918
aF0.06000000000000005
aa(lp1195
F0.03605551275463993
aF0.020000000000000018
aa(lp1196
F2.7755575615628914e-17
aF0.03
aa(lp1197
F2.7755575615628914e-17
aF0.01999999999999999
aa(lp1198
F0.014142135623730923
aF0.010000000000000009
aa(lp1199
F0.010000000000000009
aF0.0
aa(lp1200
F0.0
aF0.010000000000000009
aa(lp1201
F0.04999999999999999
aF0.03162277660168377
aa(lp1202
F0.014142135623730963
aF0.050990195135927785
aa(lp1203
F0.05385164807134505
aF0.11401754250991385
aa(lp1204
F0.0
aF0.020000000000000018
aa(lp1205
F0.019999999999999907
aF0.010000000000000009
aa(lp1206
F0.031622776601683715
aF0.02236067977499791
aa(lp1207
F0.02236067977499793
aF0.08544003745317538
aa(lp1208
F0.014142135623730952
aF0.010000000000000009
aa(lp1209
F0.010000000000000037
aF0.014142135623730944
aa(lp1210
F0.022360679774997904
aF0.020000000000000018
aa(lp1211
F0.0
aF0.014142135623730963
aa(lp1212
F0.014142135623730963
aF0.022360679774997918
aa(lp1213
F0.020000000000000018
aF0.010000000000000009
aa(lp1214
F0.009999999999999981
aF0.009999999999999981
aa(lp1215
F0.010000000000000009
aF0.0
aa(lp1216
F0.010000000000000009
aF0.0
aa(lp1217
F0.0
aF0.0
aa(lp1218
F0.0
aF0.0
aa(lp1219
F0.0
aF0.0
aa(lp1220
F0.010000000000000009
aF0.0
aa(lp1221
F0.010000000000000009
aF0.0
aa(lp1222
F0.0
aF0.0
aa(lp1223
F0.010000000000000009
aF0.010000000000000009
aa(lp1224
F0.040000000000000036
aF0.050000000000000044
aa(lp1225
F0.010000000000000009
aF0.06082762530298214
aa(lp1226
F0.009999999999999898
aF0.019999999999999907
aa(lp1227
F0.010000000000000009
aF0.022360679774997918
aa(lp1228
F0.0
aF0.010000000000000009
aa(lp1229
F0.010000000000000009
aF0.014142135623730963
aa(lp1230
F0.010000000000000009
aF0.03162277660168382
aa(lp1231
F1.1102230246251565e-16
aF0.020000000000000018
aa(lp1232
F0.010000000000000009
aF0.010000000000000009
aa(lp1233
F0.010000000000000009
aF0.022360679774997866
aa(lp1234
F0.009999999999999953
aF0.022360679774997918
aa(lp1235
F0.009999999999999981
aF0.03605551275463991
aa(lp1236
F0.010000000000000009
aF0.022360679774997918
aa(lp1237
F0.010000000000000009
aF0.022360679774997904
aa(lp1238
F0.022360679774997942
aF0.0608276253029822
aa(lp1239
F2.220446049250313e-16
aF0.022360679774997717
aa(lp1240
F1.3877787807814457e-17
aF0.02236067977499791
aa(lp1241
F1.3877787807814457e-17
aF0.02236067977499791
aa(lp1242
F0.014142135623730963
aF0.020000000000000018
aa(lp1243
F0.05385164807134499
aF0.08944271909999155
aa(lp1244
F0.10440306508910556
aF0.07071067811865482
aa(lp1245
F0.07280109889280519
aF0.08246211251235329
aa(lp1246
F0.07615773105863914
aF0.0
aa(lp1247
F0.014142135623730944
aF0.010000000000000009
aa(lp1248
F0.0316227766016838
aF0.0728010988928052
aa(lp1249
F0.0
aF0.028284271247461915
aa(lp1250
F1.3877787807814457e-17
aF0.0223606797749979
aa(lp1251
F0.014142135623730963
aF0.0223606797749979
aa(lp1252
F0.009999999999999981
aF0.014142135623730944
aa(lp1253
F0.014142135623731062
aF0.06999999999999984
aa(lp1254
F0.010000000000000009
aF0.014142135623730963
aa(lp1255
F0.036055512754640015
aF0.041231056256176644
aa(lp1256
F0.022360679774997817
aF0.03162277660168382
aa(lp1257
F0.040000000000000036
aF0.036055512754639925
aa(lp1258
F0.02828427124746177
aF0.08999999999999986
aa(lp1259
F0.0
aF0.0
aa(lp1260
F0.014142135623730963
aF0.0
aa(lp1261
F0.0
aF0.0
aa(lp1262
F0.014142135623730963
aF0.0
aa(lp1263
F2.220446049250313e-16
aF0.0
aa(lp1264
F0.0
aF0.0
aa(lp1265
F0.010000000000000009
aF0.0
aa(lp1266
F0.010000000000000009
aF0.0
aa(lp1267
F2.220446049250313e-16
aF0.0
aa(lp1268
F0.036055512754639925
aF0.0
aa(lp1269
F0.022360679774998116
aF0.05099019513592784
aa(lp1270
F0.009999999999999953
aF0.014142135623730963
aa(lp1271
F0.02236067977499781
aF0.0608276253029822
aa(lp1272
F0.022360679774997953
aF0.04242640687119287
aa(lp1273
F0.014142135623730963
aF0.022360679774997918
aa(lp1274
F0.014142135623730963
aF0.014142135623730944
aa(lp1275
F0.0
aF0.014142135623730963
aa(lp1276
F0.0
aF0.014142135623730963
aa(lp1277
F0.1603121954188139
aF0.1216552506059644
aa(lp1278
F0.170293863659264
aF0.010000000000000009
aa(lp1279
F0.23345235059857503
aF0.009999999999999995
aa(lp1280
F0.0728010988928052
aF0.07615773105863909
aa(lp1281
F0.009999999999999995
aF0.010000000000000009
aa(lp1282
F0.04242640687119286
aF0.11401754250991376
aa(lp1283
F0.06082762530298214
aF0.05099019513592784
aa(lp1284
F0.07280109889280519
aF0.07071067811865477
aa(lp1285
F0.12806248474865692
aF0.12041594578792295
aa(lp1286
F0.009999999999999898
aF0.010000000000000009
aa(lp1287
F0.0
aF0.020000000000000018
aa(lp1288
F0.014142135623730885
aF0.08485281374238567
aa(lp1289
F0.02236067977499777
aF0.09848857801796103
aa(lp1290
F0.014142135623730963
aF0.05385164807134509
aa(lp1291
F0.010000000000000009
aF0.014142135623730963
aa(lp1292
F0.0
aF0.020000000000000018
aa(lp1293
F0.04123105625617669
aF0.050990195135927896
aa(lp1294
F0.010000000000000009
aF0.0
aa(lp1295
F0.0
aF0.0
aa(lp1296
F0.0
aF0.0
aa(lp1297
F0.0
aF0.0
aa(lp1298
F0.0
aF0.0
aa(lp1299
F0.0
aF0.0
aa(lp1300
F0.0
aF0.0
aa(lp1301
F0.0
aF0.0
aa(lp1302
F0.0
aF0.0
aa(lp1303
F0.06403124237432854
aF0.022360679774997918
aa(lp1304
F0.010000000000000009
aF0.022360679774997918
aa(lp1305
F0.014142135623730963
aF0.028284271247461926
aa(lp1306
F0.04123105625617653
aF0.036055512754639904
aa(lp1307
F0.020000000000000004
aF0.020000000000000018
aa(lp1308
F0.05385164807134498
aF0.014142135623730963
aa(lp1309
F0.009999999999999995
aF0.014142135623730963
aa(lp1310
F0.06708203932499375
aF0.036055512754639835
aa(lp1311
F0.014142135623730885
aF0.06324555320336764
aa(lp1312
F0.031622776601683715
aF0.06403124237432847
aa(lp1313
F0.014142135623730963
aF0.010000000000000009
aa(lp1314
F0.0
aF0.014142135623730963
aa(lp1315
F0.3088689042296099
aF0.10770329614269007
aa(lp1316
F0.34885527085024826
aF0.130384048104053
aa(lp1317
F0.020000000000000018
aF0.06403124237432854
aa(lp1318
F0.010000000000000009
aF0.022360679774997918
aa(lp1319
F0.010000000000000009
aF0.022360679774997918
aa(lp1320
F0.010000000000000009
aF0.028284271247461926
aa(lp1321
F0.010000000000000231
aF0.050990195135927896
aa(lp1322
F0.009999999999999787
aF0.05830951894845306
aa(lp1323
F0.010000000000000009
aF0.04242640687119281
aa(lp1324
F0.010000000000000009
aF0.014142135623730963
aa(lp1325
F0.010000000000000009
aF0.022360679774997918
aa(lp1326
F0.010000000000000009
aF0.014142135623730963
aa(lp1327
F0.014142135623730963
aF0.022360679774997918
aa(lp1328
F0.014142135623730885
aF0.010000000000000009
aa(lp1329
F0.010000000000000009
aF0.022360679774997918
aa(lp1330
F0.01000000000000012
aF0.010000000000000009
aa(lp1331
F1.1102230246251565e-16
aF0.014142135623730963
aa(lp1332
F0.0
aF0.022360679774997918
aa(lp1333
F0.010000000000000009
aF0.014142135623730923
aa(lp1334
F0.010000000000000009
aF0.022360679774997918
aa(lp1335
F0.010000000000000009
aF0.014142135623730963
aa(lp1336
F0.010000000000000009
aF0.022360679774997918
aa(lp1337
F0.010000000000000064
aF0.014142135623730923
aa(lp1338
F0.010000000000000009
aF0.010000000000000009
aa(lp1339
F2.220446049250313e-16
aF0.0360555127546398
aa(lp1340
F0.01999999999999997
aF0.05099019513592789
aa(lp1341
F0.05000000000000003
aF0.030000000000000027
aa(lp1342
F0.0
aF0.030000000000000027
aa(lp1343
F0.0
aF0.014142135623730963
aa(lp1344
F0.014142135623730963
aF0.020000000000000018
aa(lp1345
F0.009999999999999953
aF0.022360679774997866
aa(lp1346
F5.551115123125783e-17
aF0.020000000000000018
aa(lp1347
F0.0
aF0.022360679774997918
aa(lp1348
F0.010000000000000009
aF0.014142135623730963
aa(lp1349
F0.010000000000000009
aF0.010000000000000009
aa(lp1350
F5.551115123125783e-17
aF0.020000000000000018
aa(lp1351
F0.040000000000000036
aF0.0
aa(lp1352
F0.010000000000000009
aF0.03162277660168382
aa(lp1353
F0.010000000000000009
aF0.020000000000000018
aa(lp1354
F0.010000000000000009
aF0.014142135623730963
aa(lp1355
F0.010000000000000009
aF0.022360679774997918
aa(lp1356
F0.010000000000000009
aF0.010000000000000009
aa(lp1357
F0.010000000000000009
aF0.022360679774997918
aa(lp1358
F0.010000000000000009
aF0.03605551275463974
aa(lp1359
F0.022360679774998015
aF0.06708203932499356
aa(lp1360
F0.022360679774997918
aF0.028284271247461926
aa(lp1361
F0.010000000000000009
aF0.0
aa(lp1362
F2.220446049250313e-16
aF0.0
aa(lp1363
F0.010000000000000009
aF0.0
aa(lp1364
F0.0
aF0.0
aa(lp1365
F0.010000000000000009
aF0.0
aa(lp1366
F0.0
aF0.0
aa(lp1367
F0.0
aF0.0
aa(lp1368
F0.022360679774998015
aF0.010000000000000009
aa(lp1369
F0.014142135623730923
aF0.014142135623730963
aa(lp1370
F0.0
aF0.020000000000000018
aa(lp1371
F0.0
aF0.020000000000000018
aa(lp1372
F0.010000000000000009
aF0.010000000000000009
aa(lp1373
F0.01000000000000012
aF0.020000000000000018
aa(lp1374
F0.014142135623730963
aF0.010000000000000009
aa(lp1375
F0.09486832980505137
aF0.04242640687119273
aa(lp1376
F0.009999999999999787
aF0.02828427124746173
aa(lp1377
F0.010000000000000009
aF0.022360679774997918
aa(lp1378
F0.0
aF0.014142135623730963
aa(lp1379
F0.15297058540778355
aF0.053851648071345085
aa(lp1380
F0.014142135623730895
aF0.02828427124746184
aa(lp1381
F0.09219544457292894
aF0.022360679774997904
aa(lp1382
F0.009999999999999898
aF0.020000000000000018
aa(lp1383
F0.10630145812734636
aF0.050990195135927896
aa(lp1384
F0.014142135623730963
aF0.022360679774997918
aa(lp1385
F0.028284271247461846
aF0.06708203932499365
aa(lp1386
F0.010000000000000009
aF0.014142135623730963
aa(lp1387
F0.010000000000000009
aF0.014142135623730963
aa(lp1388
F0.02236067977499777
aF0.10770329614269018
aa(lp1389
F0.07810249675906657
aF0.19416487838947602
aa(lp1390
F0.022360679774997866
aF0.15811388300841894
aa(lp1391
F0.010000000000000064
aF0.029999999999999916
aa(lp1392
F0.010000000000000009
aF0.022360679774997918
aa(lp1393
F0.010000000000000009
aF0.010000000000000009
aa(lp1394
F0.0
aF0.020000000000000018
aa(lp1395
F0.014142135623730963
aF0.022360679774997918
aa(lp1396
F0.009999999999999898
aF0.010000000000000009
aa(lp1397
F0.08246211251235319
aF0.09486832980505143
aa(lp1398
F0.022360679774997918
aF0.08062257748298554
aa(lp1399
F0.010000000000000009
aF0.014142135623730963
aa(lp1400
F0.0
aF0.014142135623730963
aa(lp1401
F0.036055512754639925
aF0.0670820393249937
aa(lp1402
F0.010000000000000009
aF0.0
aa(lp1403
F0.010000000000000009
aF0.0
aa(lp1404
F0.010000000000000009
aF0.0
aa(lp1405
F2.220446049250313e-16
aF0.0
aa(lp1406
F0.0
aF0.0
aa(lp1407
F0.010000000000000009
aF0.0
aa(lp1408
F0.014142135623730963
aF0.0
aa(lp1409
F0.03162277660168389
aF0.014142135623730807
aa(lp1410
F0.010000000000000009
aF0.020000000000000018
aa(lp1411
F0.010000000000000009
aF0.010000000000000009
aa(lp1412
F0.010000000000000009
aF0.010000000000000009
aa(lp1413
F0.009999999999999787
aF0.010000000000000009
aa(lp1414
F0.0
aF0.010000000000000009
aa(lp1415
F0.0
aF0.0
aa(lp1416
F0.010000000000000009
aF0.0
aa(lp1417
F0.022360679774997904
aF0.02999999999999997
aa(lp1418
F5.551115123125783e-17
aF0.010000000000000009
aa(lp1419
F0.010000000000000009
aF0.0
aa(lp1420
F0.010000000000000009
aF0.014142135623730963
aa(lp1421
F0.0
aF0.010000000000000009
aa(lp1422
F0.022360679774997894
aF0.022360679774997918
aa(lp1423
F0.010000000000000009
aF0.0
aa(lp1424
F0.0
aF0.0
aa(lp1425
F0.0
aF0.0
aa(lp1426
F2.220446049250313e-16
aF0.0
aa(lp1427
F0.0
aF0.0
aa(lp1428
F0.014142135623730963
aF0.0
aa(lp1429
F0.0
aF0.0
aa(lp1430
F2.220446049250313e-16
aF0.0
aa(lp1431
F0.010000000000000009
aF0.014142135623730807
aa(lp1432
F0.010000000000000231
aF0.020000000000000018
aa(lp1433
F0.0
aF0.0316227766016838
aa(lp1434
F0.0
aF0.022360679774997918
aa(lp1435
F2.7755575615628914e-17
aF0.009999999999999953
aa(lp1436
F2.7755575615628914e-17
aF0.03162277660168377
aa(lp1437
F0.014142135623730982
aF0.022360679774997918
aa(lp1438
F0.014142135623730963
aF0.010000000000000009
aa(lp1439
F5.551115123125783e-17
aF0.022360679774997866
aa(lp1440
F0.010000000000000009
aF0.014142135623730963
aa(lp1441
F0.0
aF0.022360679774997918
aa(lp1442
F5.551115123125783e-17
aF0.03162277660168377
aa(lp1443
F0.009999999999999953
aF0.014142135623730807
aa(lp1444
F5.551115123125783e-17
aF0.04472135954999579
aa(lp1445
F0.009999999999999787
aF0.13152946437965896
aa(lp1446
F0.010000000000000009
aF0.022360679774997918
aa(lp1447
F0.010000000000000009
aF0.022360679774997918
aa(lp1448
F0.010000000000000009
aF0.014142135623730963
aa(lp1449
F0.014142135623731041
aF0.028284271247461926
aa(lp1450
F0.01414213562373112
aF0.02828427124746177
aa(lp1451
F0.010000000000000009
aF0.028284271247461926
aa(lp1452
F1.1102230246251565e-16
aF0.04242640687119281
aa(lp1453
F0.010000000000000009
aF0.050000000000000044
aa(lp1454
F0.01000000000000012
aF0.022360679774997918
aa(lp1455
F0.010000000000000009
aF0.022360679774997918
aa(lp1456
F0.0
aF0.014142135623730963
aa(lp1457
F0.0
aF0.014142135623730963
aa(lp1458
F0.0
aF0.022360679774997918
aa(lp1459
F0.01000000000000012
aF0.014142135623730885
aa(lp1460
F0.24698178070456936
aF0.010000000000000009
aa(lp1461
F0.299666481275434
aF0.022360679774997918
aa(lp1462
F0.014142135623731041
aF0.030000000000000027
aa(lp1463
F1.1102230246251565e-16
aF0.05385164807134501
aa(lp1464
F0.022360679774997668
aF0.022360679774997817
aa(lp1465
F0.014142135623730963
aF0.03162277660168382
aa(lp1466
F0.020000000000000018
aF0.03162277660168381
aa(lp1467
F0.020000000000000018
aF0.03
aa(lp1468
F0.0
aF0.0608276253029822
aa(lp1469
F0.022360679774997894
aF0.0640312423743285
aa(lp1470
F0.0
aF0.04123105625617659
aa(lp1471
F0.014142135623730963
aF0.022360679774997918
aa(lp1472
F0.03162277660168382
aF0.05656854249492369
aa(lp1473
F0.010000000000000009
aF0.031622776601683715
aa(lp1474
F0.010000000000000009
aF0.0
aa(lp1475
F0.014142135623730963
aF0.0
aa(lp1476
F0.010000000000000009
aF0.0
aa(lp1477
F0.010000000000000009
aF0.0
aa(lp1478
F0.010000000000000009
aF0.0
aa(lp1479
F0.0
aF0.0
aa(lp1480
F0.0
aF0.0
aa(lp1481
F0.0
aF0.0
aa(lp1482
F2.220446049250313e-16
aF0.0
aa(lp1483
F0.0
aF0.030000000000000027
aa(lp1484
F0.020000000000000018
aF0.18439088914585783
aa(lp1485
F0.009999999999999898
aF0.028284271247461926
aa(lp1486
F0.014142135623730963
aF0.028284271247461926
aa(lp1487
F0.04123105625617672
aF0.08062257748298542
aa(lp1488
F0.06082762530298235
aF0.05999999999999994
aa(lp1489
F0.014142135623730952
aF0.014142135623730952
aa(lp1490
F0.29068883707497273
aF0.030000000000000027
aa(lp1491
F0.3001666203960728
aF0.022360679774997894
aa(lp1492
F0.010000000000000009
aF0.05385164807134508
aa(lp1493
F0.02236067977499784
aF0.05385164807134486
aa(lp1494
F0.020000000000000018
aF0.014142135623730923
aa(lp1495
F1.1102230246251565e-16
aF0.020000000000000018
aa(lp1496
F0.014142135623730963
aF0.020000000000000018
aa(lp1497
F0.014142135623730885
aF0.020000000000000018
aa(lp1498
F2.482534153247273e-16
aF0.12041594578792295
aa(lp1499
F0.01000000000000012
aF0.10440306508910535
aa(lp1500
F0.0
aF0.0
aa(lp1501
F0.010000000000000009
aF0.0
aa(lp1502
F0.0
aF0.0
aa(lp1503
F0.010000000000000009
aF0.0
aa(lp1504
F2.220446049250313e-16
aF0.0
aa(lp1505
F0.0
aF0.0
aa(lp1506
F0.0
aF0.0
aa(lp1507
F0.0
aF0.0
aa(lp1508
F0.022360679774998015
aF0.009999999999999898
aa(lp1509
F0.014142135623730963
aF0.03162277660168382
aa(lp1510
F0.010000000000000009
aF0.010000000000000009
aa(lp1511
F0.010000000000000009
aF0.020000000000000018
aa(lp1512
F1.1102230246251565e-16
aF0.022360679774997918
aa(lp1513
F0.0
aF0.010000000000000009
aa(lp1514
F0.01000000000000012
aF0.028284271247461926
aa(lp1515
F0.036055512754639925
aF0.049999999999999864
aa(lp1516
F0.010000000000000231
aF0.022360679774997717
aa(lp1517
F0.0
aF0.014142135623730963
aa(lp1518
F5.551115123125783e-17
aF0.022360679774997918
aa(lp1519
F0.0
aF0.0
aa(lp1520
F0.014142135623730963
aF0.0
aa(lp1521
F0.010000000000000009
aF0.0
aa(lp1522
F0.010000000000000009
aF0.0
aa(lp1523
F0.0
aF0.009999999999999787
aa(lp1524
F0.010000000000000009
aF0.0
aa(lp1525
F0.010000000000000009
aF0.0
aa(lp1526
F0.014142135623730963
aF0.0
aa(lp1527
F0.0
aF0.0
aa(lp1528
F0.010000000000000009
aF0.0
aa(lp1529
F0.014142135623730807
aF0.020000000000000018
aa(lp1530
F0.014142135623730767
aF0.014142135623730963
aa(lp1531
F5.551115123125783e-17
aF0.0
aa(lp1532
F0.0
aF0.014142135623730963
aa(lp1533
F2.220446049250313e-16
aF0.022360679774997918
aa(lp1534
F0.0
aF0.014142135623730963
aa(lp1535
F0.0
aF0.010000000000000009
aa(lp1536
F5.551115123125783e-17
aF0.022360679774997918
aa(lp1537
F0.0
aF0.014142135623730963
aa(lp1538
F0.06403124237432851
aF0.11401754250991376
aa(lp1539
F0.029999999999999916
aF0.08062257748298557
aa(lp1540
F0.014142135623730963
aF0.022360679774997918
aa(lp1541
F0.07071067811865481
aF0.04242640687119281
aa(lp1542
F0.010000000000000009
aF0.0
aa(lp1543
F2.220446049250313e-16
aF0.0
aa(lp1544
F2.220446049250313e-16
aF0.0
aa(lp1545
F0.010000000000000009
aF0.0
aa(lp1546
F2.220446049250313e-16
aF0.0
aa(lp1547
F0.010000000000000009
aF0.0
aa(lp1548
F0.010000000000000231
aF0.010000000000000009
aa(lp1549
F0.022360679774997918
aF0.010000000000000009
aa(lp1550
F0.14866068747318506
aF0.050000000000000044
aa(lp1551
F0.09219544457292886
aF0.15000000000000002
aa(lp1552
F0.09999999999999988
aF0.1118033988749895
aa(lp1553
F1.3877787807814457e-17
aF0.01999999999999999
aa(lp1554
F0.014142135623730952
aF0.01999999999999999
aa(lp1555
F1.3877787807814457e-17
aF0.020000000000000018
aa(lp1556
F0.014142135623730973
aF0.022360679774997894
aa(lp1557
F0.0
aF0.01999999999999999
aa(lp1558
F0.031622776601683736
aF0.0
aa(lp1559
F0.010000000000000009
aF0.0
aa(lp1560
F0.0
aF0.0
aa(lp1561
F0.0
aF0.0
aa(lp1562
F0.0
aF0.0
aa(lp1563
F2.220446049250313e-16
aF0.0
aa(lp1564
F0.0
aF0.0
aa(lp1565
F0.028284271247461926
aF0.0
aa(lp1566
F2.7755575615628914e-17
aF0.020000000000000018
aa(lp1567
F0.020000000000000018
aF0.0
aa(lp1568
F0.010000000000000009
aF0.014142135623730963
aa(lp1569
F0.009999999999999995
aF0.0
aa(lp1570
F0.010000000000000009
aF0.01999999999999999
aa(lp1571
F0.0
aF0.0
aa(lp1572
F0.0
aF0.0
aa(lp1573
F0.0
aF0.0
aa(lp1574
F0.0
aF0.0
aa(lp1575
F0.0
aF0.0
aa(lp1576
F0.0
aF0.0
aa(lp1577
F0.0
aF0.0
aa(lp1578
F0.0
aF0.0
aa(lp1579
F0.009999999999999787
aF0.0
aa(lp1580
F0.022360679774998015
aF0.010000000000000009
aa(lp1581
F0.010000000000000009
aF0.014142135623730963
aa(lp1582
F0.010000000000000009
aF0.014142135623730963
aa(lp1583
F0.014142135623730963
aF0.014142135623730963
aa(lp1584
F1.1102230246251565e-16
aF0.010000000000000009
aa(lp1585
F0.0
aF0.010000000000000009
aa(lp1586
F0.06708203932499363
aF0.05830951894845301
aa(lp1587
F0.02236067977499777
aF0.041231056256176644
aa(lp1588
F0.03162277660168382
aF0.10000000000000005
aa(lp1589
F0.010000000000000009
aF0.022360679774997918
aa(lp1590
F0.04472135954999582
aF0.040000000000000036
aa(lp1591
F0.010000000000000009
aF0.014142135623730963
aa(lp1592
F0.010000000000000009
aF0.014142135623730963
aa(lp1593
F0.05385164807134498
aF0.08246211251235318
aa(lp1594
F0.028284271247461926
aF0.03162277660168382
aa(lp1595
F0.07280109889280503
aF0.036055512754639925
aa(lp1596
F0.17088007490635054
aF0.028284271247461926
aa(lp1597
F0.04123105625617662
aF0.041231056256176644
aa(lp1598
F0.12529964086141662
aF0.01999999999999999
aa(lp1599
F0.009999999999999981
aF0.050990195135927896
aa(lp1600
F0.158113883008419
aF0.07211102550927982
aa(lp1601
F0.0806225774829854
aF0.094339811320566
aa(lp1602
F0.014142135623730944
aF0.0316227766016838
aa(lp1603
F0.009999999999999995
aF0.039999999999999994
aa(lp1604
F1.3877787807814457e-17
aF0.030000000000000002
aa(lp1605
F0.009999999999999995
aF0.01
aa(lp1606
F0.26570660511172844
aF0.0640312423743285
aa(lp1607
F0.13892443989449804
aF0.009999999999999995
aa(lp1608
F0.15620499351813308
aF0.010000000000000009
aa(lp1609
F0.17262676501632068
aF0.05830951894845302
aa(lp1610
F0.022360679774997894
aF0.0316227766016838
aa(lp1611
F0.1565247584249852
aF0.05099019513592787
aa(lp1612
F0.04123105625617663
aF0.2109502310972899
aa(lp1613
F0.0
aF0.020000000000000018
aa(lp1614
F0.07280109889280514
aF0.029999999999999916
aa(lp1615
F0.010000000000000009
aF0.0
aa(lp1616
F0.010000000000000009
aF0.0
aa(lp1617
F0.010000000000000009
aF0.0
aa(lp1618
F0.0
aF0.0
aa(lp1619
F0.0
aF0.0
aa(lp1620
F0.0
aF0.0
aa(lp1621
F0.0
aF0.0
aa(lp1622
F0.04123105625617659
aF0.0
aa(lp1623
F0.014142135623730885
aF0.09848857801796111
aa(lp1624
F5.551115123125783e-17
aF0.022360679774997866
aa(lp1625
F0.010000000000000009
aF0.010000000000000009
aa(lp1626
F0.0
aF0.020000000000000018
aa(lp1627
F0.0
aF0.010000000000000009
aa(lp1628
F5.551115123125783e-17
aF0.019999999999999962
aa(lp1629
F0.010000000000000009
aF0.028284271247461915
aa(lp1630
F0.0
aF0.03
aa(lp1631
F0.022360679774997817
aF0.050990195135927896
aa(lp1632
F0.010000000000000009
aF0.07211102550927985
aa(lp1633
F0.010000000000000009
aF0.014142135623730963
aa(lp1634
F0.010000000000000009
aF0.0
aa(lp1635
F0.010000000000000009
aF0.014142135623730963
aa(lp1636
F0.0
aF0.0
aa(lp1637
F0.0
aF0.0
aa(lp1638
F0.0
aF0.0
aa(lp1639
F0.0
aF0.0
aa(lp1640
F0.0
aF0.0
aa(lp1641
F0.010000000000000009
aF0.010000000000000009
aa(lp1642
F0.022360679774997894
aF0.028284271247461926
aa(lp1643
F0.0
aF0.028284271247461926
aa(lp1644
F0.014142135623730923
aF0.022360679774997866
aa(lp1645
F0.0
aF0.022360679774997918
aa(lp1646
F0.014142135623730944
aF0.05099019513592784
aa(lp1647
F0.009999999999999995
aF0.028284271247461915
aa(lp1648
F1.3877787807814457e-17
aF0.022360679774997904
aa(lp1649
F1.3877787807814457e-17
aF0.014142135623730952
aa(lp1650
F0.09219544457292883
aF0.11180339887498944
aa(lp1651
F0.039999999999999925
aF0.05099019513592788
aa(lp1652
F0.014142135623730963
aF0.022360679774997918
aa(lp1653
F1.1102230246251565e-16
aF0.019999999999999907
aa(lp1654
F0.009999999999999953
aF0.020000000000000018
aa(lp1655
F0.010000000000000009
aF0.036055512754639835
aa(lp1656
F0.014142135623730963
aF0.014142135623730963
aa(lp1657
F0.028284271247461912
aF0.010000000000000009
aa(lp1658
F0.010000000000000009
aF0.01999999999999999
aa(lp1659
F0.01999999999999999
aF0.010000000000000009
aa(lp1660
F1.1102230246251565e-16
aF0.039999999999999925
aa(lp1661
F0.014142135623730963
aF0.0
aa(lp1662
F0.014142135623730963
aF0.0
aa(lp1663
F0.0
aF0.0
aa(lp1664
F0.0
aF0.0
aa(lp1665
F2.220446049250313e-16
aF0.0
aa(lp1666
F0.010000000000000009
aF0.0
aa(lp1667
F0.010000000000000009
aF0.0
aa(lp1668
F0.0
aF0.0
aa(lp1669
F0.010000000000000009
aF0.0
aa(lp1670
F0.01414213562373112
aF0.010000000000000009
aa(lp1671
F0.009999999999999787
aF0.009999999999999787
aa(lp1672
F0.009999999999999787
aF0.022360679774998015
aa(lp1673
F4.440892098500626e-16
aF0.010000000000000009
aa(lp1674
F0.022360679774998015
aF0.022360679774997918
aa(lp1675
F0.02236067977499793
aF0.019999999999999962
aa(lp1676
F0.009999999999999953
aF0.0
aa(lp1677
F0.010000000000000009
aF0.028284271247461905
aa(lp1678
F0.010000000000000009
aF0.03605551275463991
aa(lp1679
F0.009999999999999981
aF0.014142135623730958
aa(lp1680
F0.009999999999999995
aF0.022360679774997897
aa(lp1681
F0.009999999999999995
aF0.014142135623730958
aa(lp1682
F1.3877787807814457e-17
aF0.0
aa(lp1683
F0.0
aF0.010000000000000009
aa(lp1684
F0.0
aF0.010000000000000002
aa(lp1685
F0.03605551275463999
aF0.0499999999999998
aa(lp1686
F0.0
aF0.0
aa(lp1687
F0.0
aF0.0
aa(lp1688
F0.010000000000000009
aF0.0
aa(lp1689
F0.010000000000000009
aF0.0
aa(lp1690
F0.0
aF0.0
aa(lp1691
F0.010000000000000009
aF0.0
aa(lp1692
F2.220446049250313e-16
aF0.009999999999999787
aa(lp1693
F0.022360679774998015
aF0.030000000000000027
aa(lp1694
F0.010000000000000009
aF0.022360679774997918
aa(lp1695
F0.0
aF0.020000000000000018
aa(lp1696
F0.014142135623730963
aF0.010000000000000009
aa(lp1697
F0.010000000000000009
aF0.014142135623730963
aa(lp1698
F0.1000000000000001
aF0.022360679774997866
aa(lp1699
F0.08544003745317535
aF0.0
aa(lp1700
F0.010000000000000009
aF0.014142135623730963
aa(lp1701
F0.010000000000000009
aF0.019999999999999907
aa(lp1702
F0.010000000000000009
aF0.014142135623730963
aa(lp1703
F0.010000000000000009
aF0.022360679774997918
aa(lp1704
F0.04472135954999581
aF0.022360679774997918
aa(lp1705
F0.014142135623730963
aF0.028284271247461926
aa(lp1706
F0.07071067811865471
aF0.05385164807134505
aa(lp1707
F0.009999999999999898
aF0.03162277660168382
aa(lp1708
F0.0
aF0.010000000000000009
aa(lp1709
F0.02999999999999997
aF0.07071067811865477
aa(lp1710
F0.014142135623731003
aF0.053851648071344994
aa(lp1711
F2.7755575615628914e-17
aF0.014142135623730944
aa(lp1712
F0.010000000000000009
aF0.022360679774997918
aa(lp1713
F0.014142135623730767
aF0.0316227766016838
aa(lp1714
F0.0
aF0.014142135623730963
aa(lp1715
F0.014142135623730963
aF0.022360679774997897
aa(lp1716
F0.010000000000000009
aF0.014142135623730958
aa(lp1717
F2.220446049250313e-16
aF0.014142135623730956
aa(lp1718
F0.014142135623730944
aF0.014142135623730963
aa(lp1719
F0.022360679774997966
aF0.05
aa(lp1720
F2.220446049250313e-16
aF0.022360679774997918
aa(lp1721
F0.028284271247461915
aF0.1264911064067352
aa(lp1722
F0.014142135623730963
aF0.0
aa(lp1723
F0.010000000000000009
aF0.0
aa(lp1724
F0.0
aF0.0
aa(lp1725
F0.010000000000000009
aF0.0
aa(lp1726
F0.0
aF0.0
aa(lp1727
F0.0
aF0.0
aa(lp1728
F0.010000000000000009
aF0.0
aa(lp1729
F0.03162277660168375
aF0.0
aa(lp1730
F0.009999999999999898
aF0.03162277660168382
aa(lp1731
F0.0
aF0.020000000000000018
aa(lp1732
F0.010000000000000009
aF0.010000000000000009
aa(lp1733
F1.1102230246251565e-16
aF0.022360679774997918
aa(lp1734
F0.0
aF0.010000000000000009
aa(lp1735
F1.1102230246251565e-16
aF0.019999999999999907
aa(lp1736
F0.0
aF0.028284271247461926
aa(lp1737
F0.009999999999999995
aF0.03162277660168382
aa(lp1738
F0.014142135623730952
aF0.022360679774997904
aa(lp1739
F1.3877787807814457e-17
aF0.009999999999999995
aa(lp1740
F1.3877787807814457e-17
aF0.014142135623730963
aa(lp1741
F0.010000000000000009
aF0.014142135623730952
aa(lp1742
F0.010000000000000009
aF0.009999999999999995
aa(lp1743
F0.010000000000000009
aF0.022360679774997904
aa(lp1744
F0.009999999999999995
aF0.022360679774997904
aa(lp1745
F0.009999999999999981
aF0.010000000000000009
aa(lp1746
F1.3877787807814457e-17
aF0.022360679774997894
aa(lp1747
F0.010000000000000009
aF0.014142135623730963
aa(lp1748
F1.3877787807814457e-17
aF0.022360679774997894
aa(lp1749
F1.3877787807814457e-17
aF0.0316227766016838
aa(lp1750
F0.009999999999999981
aF0.014142135623730807
aa(lp1751
F0.009999999999999898
aF0.04999999999999982
aa(lp1752
F0.028284271247462005
aF0.022360679774997918
aa(lp1753
F0.022360679774998015
aF0.022360679774997918
aa(lp1754
F0.031622776601683784
aF0.0632455532033676
aa(lp1755
F0.0412310562561766
aF0.0316227766016838
aa(lp1756
F0.010000000000000009
aF0.0
aa(lp1757
F0.0
aF0.0
aa(lp1758
F0.0
aF0.0
aa(lp1759
F0.0
aF0.0
aa(lp1760
F0.0
aF0.0
aa(lp1761
F0.0
aF0.0
aa(lp1762
F0.0
aF0.0
aa(lp1763
F0.029999999999999916
aF0.01414213562373112
aa(lp1764
F0.0
aF0.0
aa(lp1765
F0.05099019513592788
aF0.010000000000000009
aa(lp1766
F0.022360679774997817
aF0.05385164807134509
aa(lp1767
F0.014142135623730963
aF0.028284271247461926
aa(lp1768
F1.1102230246251565e-16
aF0.04242640687119281
aa(lp1769
F0.010000000000000009
aF0.05656854249492385
aa(lp1770
F0.009999999999999898
aF0.03605551275463974
aa(lp1771
F0.014142135623730963
aF0.028284271247461926
aa(lp1772
F0.01000000000000012
aF0.03605551275463986
aa(lp1773
F0.009999999999999787
aF0.014142135623730963
aa(lp1774
F0.0
aF0.014142135623730963
aa(lp1775
F0.010000000000000009
aF0.036055512754639925
aa(lp1776
F0.028284271247461905
aF0.05385164807134488
aa(lp1777
F0.014142135623730963
aF0.0
aa(lp1778
F0.010000000000000009
aF0.0
aa(lp1779
F0.009999999999999787
aF0.0
aa(lp1780
F0.010000000000000009
aF0.0
aa(lp1781
F0.0
aF0.0
aa(lp1782
F0.010000000000000009
aF0.0
aa(lp1783
F0.010000000000000009
aF0.009999999999999787
aa(lp1784
F0.0
aF0.0
aa(lp1785
F0.010000000000000009
aF0.010000000000000009
aa(lp1786
F0.010000000000000009
aF0.010000000000000009
aa(lp1787
F0.0
aF0.010000000000000009
aa(lp1788
F0.010000000000000009
aF0.0
aa(lp1789
F0.014142135623730963
aF0.010000000000000009
aa(lp1790
F0.0
aF0.0
aa(lp1791
F0.0
aF0.010000000000000009
aa(lp1792
F0.009999999999999995
aF0.010000000000000002
aa(lp1793
F0.0
aF0.0
aa(lp1794
F0.0
aF0.0
aa(lp1795
F0.010000000000000009
aF0.010000000000000009
aa(lp1796
F0.009999999999999995
aF0.0
aa(lp1797
F0.0
aF0.0
aa(lp1798
F0.0
aF0.0
aa(lp1799
F0.010000000000000009
aF0.009999999999999981
aa(lp1800
F0.014142135623730963
aF0.014142135623730944
aa(lp1801
F1.3877787807814457e-17
aF0.010000000000000009
aa(lp1802
F0.009999999999999981
aF0.009999999999999981
aa(lp1803
F0.010000000000000009
aF0.022360679774997894
aa(lp1804
F0.010000000000000009
aF0.010000000000000009
aa(lp1805
F0.0
aF0.0
aa(lp1806
F0.0
aF0.0
aa(lp1807
F0.0
aF0.0
aa(lp1808
F0.0
aF0.0
aa(lp1809
F0.0
aF0.0
aa(lp1810
F0.0
aF0.0
aa(lp1811
F0.0
aF0.0
aa(lp1812
F0.0
aF0.0
aa(lp1813
F0.0
aF0.0
aa(lp1814
F0.009999999999999787
aF0.0
aa(lp1815
F0.022360679774997817
aF0.010000000000000009
aa(lp1816
F0.010000000000000009
aF0.010000000000000009
aa(lp1817
F1.1102230246251565e-16
aF0.010000000000000009
aa(lp1818
F0.009999999999999995
aF0.0
aa(lp1819
F0.0
aF0.0
aa(lp1820
F0.014142135623730963
aF0.0
aa(lp1821
F0.010000000000000009
aF0.010000000000000009
aa(lp1822
F0.014142135623730944
aF0.0
aa(lp1823
F0.014142135623730952
aF0.0
aa(lp1824
F0.02236067977499791
aF0.009999999999999981
aa(lp1825
F0.009999999999999898
aF0.049999999999999954
aa(lp1826
F0.0
aF0.0
aa(lp1827
F0.0
aF0.0
aa(lp1828
F0.0
aF0.0
aa(lp1829
F0.0
aF0.0
aa(lp1830
F0.0
aF0.0
aa(lp1831
F0.0
aF0.0
aa(lp1832
F0.0
aF0.0
aa(lp1833
F0.009999999999999787
aF0.0
aa(lp1834
F0.14212670403551914
aF0.040000000000000036
aa(lp1835
F0.11704699910719624
aF0.0670820393249937
aa(lp1836
F0.1431782106327635
aF0.0583095189484529
aa(lp1837
F0.05099019513592782
aF0.01999999999999999
aa(lp1838
F0.009999999999999787
aF0.020000000000000018
aa(lp1839
F0.010000000000000009
aF0.040000000000000036
aa(lp1840
F0.05000000000000003
aF0.05830951894845305
aa(lp1841
F0.009999999999999995
aF0.02236067977499791
aa(lp1842
F0.04123105625617664
aF0.02236067977499791
aa(lp1843
F0.022360679774997706
aF0.020000000000000018
aa(lp1844
F0.010000000000000009
aF0.022360679774997817
aa(lp1845
F0.0
aF0.0
aa(lp1846
F0.0
aF0.0
aa(lp1847
F0.0
aF0.0
aa(lp1848
F0.010000000000000009
aF0.0
aa(lp1849
F0.010000000000000009
aF0.0
aa(lp1850
F0.010000000000000009
aF0.0
aa(lp1851
F0.0
aF0.0
aa(lp1852
F0.010000000000000009
aF0.02999999999999997
aa(lp1853
F0.010000000000000009
aF0.022360679774997918
aa(lp1854
F0.010000000000000037
aF0.009999999999999981
aa(lp1855
F2.7755575615628914e-17
aF0.0316227766016838
aa(lp1856
F0.05830951894845306
aF0.03162277660168377
aa(lp1857
F0.010000000000000009
aF0.020000000000000018
aa(lp1858
F0.010000000000000009
aF0.022360679774997918
aa(lp1859
F0.05
aF0.04472135954999582
aa(lp1860
F0.041231056256176644
aF0.041231056256176644
aa(lp1861
F0.050000000000000044
aF0.022360679774997918
aa(lp1862
F0.12529964086141668
aF0.04123105625617653
aa(lp1863
F0.022360679774997894
aF0.039999999999999813
aa(lp1864
F0.030000000000000013
aF0.08999999999999986
aa(lp1865
F0.010000000000000231
aF0.020000000000000018
aa(lp1866
F0.02999999999999997
aF0.03162277660168382
aa(lp1867
F0.014142135623730923
aF0.036055512754639925
aa(lp1868
F0.022360679774997918
aF0.028284271247461926
aa(lp1869
F0.0
aF0.0
aa(lp1870
F0.0
aF0.0
aa(lp1871
F0.0
aF0.0
aa(lp1872
F0.0
aF0.0
aa(lp1873
F0.0
aF0.0
aa(lp1874
F0.0
aF0.0
aa(lp1875
F0.0
aF0.0
aa(lp1876
F0.0
aF0.0
aa(lp1877
F0.0
aF0.0
aa(lp1878
F0.08062257748298536
aF0.010000000000000009
aa(lp1879
F0.010000000000000009
aF0.07211102550927982
aa(lp1880
F0.010000000000000009
aF0.014142135623730963
aa(lp1881
F0.010000000000000009
aF0.04242640687119289
aa(lp1882
F5.551115123125783e-17
aF0.014142135623730923
aa(lp1883
F5.551115123125783e-17
aF0.022360679774997918
aa(lp1884
F0.010000000000000009
aF0.022360679774997918
aa(lp1885
F5.551115123125783e-17
aF0.04242640687119285
aa(lp1886
F0.009999999999999953
aF0.028284271247461926
aa(lp1887
F0.0
aF0.022360679774997918
aa(lp1888
F2.220446049250313e-16
aF0.014142135623730807
aa(lp1889
F0.010000000000000009
aF0.022360679774997918
aa(lp1890
F0.010000000000000009
aF0.022360679774997918
aa(lp1891
F0.010000000000000009
aF0.010000000000000009
aa(lp1892
F0.014142135623730982
aF0.028284271247461926
aa(lp1893
F0.0707106781186546
aF0.0670820393249936
aa(lp1894
F0.15811388300841886
aF0.030000000000000027
aa(lp1895
F0.010000000000000009
aF0.030000000000000027
aa(lp1896
F0.030000000000000054
aF0.014142135623730963
aa(lp1897
F0.0
aF0.0
aa(lp1898
F0.0
aF0.0
aa(lp1899
F0.0
aF0.0
aa(lp1900
F0.0
aF0.0
aa(lp1901
F0.0
aF0.0
aa(lp1902
F0.0
aF0.0
aa(lp1903
F0.0
aF0.0
aa(lp1904
F0.0
aF0.0
aa(lp1905
F0.010000000000000009
aF0.010000000000000009
aa(lp1906
F0.022360679774997918
aF0.04472135954999579
aa(lp1907
F0.010000000000000009
aF0.036055512754639925
aa(lp1908
F0.0
aF0.014142135623730963
aa(lp1909
F0.009999999999999981
aF0.022360679774997894
aa(lp1910
F0.010000000000000009
aF0.028284271247461926
aa(lp1911
F0.0
aF0.036055512754639904
aa(lp1912
F0.009999999999999787
aF0.029999999999999805
aa(lp1913
F1.3877787807814457e-17
aF0.014142135623730952
aa(lp1914
F0.02828427124746199
aF0.039999999999999813
aa(lp1915
F0.02236067977499793
aF0.020000000000000018
aa(lp1916
F0.014142135623730958
aF0.010000000000000009
aa(lp1917
F0.010000000000000002
aF0.022360679774997914
aa(lp1918
F0.05830951894845304
aF0.09219544457292891
aa(lp1919
F0.014142135623730944
aF0.028284271247461905
aa(lp1920
F2.2887833992611187e-16
aF0.03162277660168377
aa(lp1921
F0.0360555127546399
aF0.050000000000000044
aa(lp1922
F0.0806225774829854
aF0.022360679774997866
aa(lp1923
F0.010000000000000009
aF0.014142135623730963
aa(lp1924
F0.031622776601683715
aF0.014142135623730963
aa(lp1925
F0.020000000000000018
aF0.010000000000000009
aa(lp1926
F0.014142135623730807
aF0.0
aa(lp1927
F0.138924439894498
aF0.20615528128088306
aa(lp1928
F0.02236067977499792
aF0.13601470508735444
aa(lp1929
F0.010000000000000023
aF0.009999999999999981
aa(lp1930
F0.010000000000000009
aF0.010000000000000009
aa(lp1931
F0.010000000000000009
aF0.022360679774997894
aa(lp1932
F2.7755575615628914e-17
aF0.060000000000000026
aa(lp1933
F0.01000000000000012
aF0.11180339887498948
aa(lp1934
F0.03605551275463986
aF0.14035668847618202
aa(lp1935
F0.010000000000000009
aF0.014142135623730963
aa(lp1936
F0.028284271247461926
aF0.11180339887498933
aa(lp1937
F0.06708203932499346
aF0.12041594578792289
aa(lp1938
F0.014142135623730807
aF0.050990195135927896
aa(lp1939
F0.014142135623730963
aF0.014142135623730963
aa(lp1940
F0.010000000000000009
aF0.020000000000000018
aa(lp1941
F2.220446049250313e-16
aF0.0
aa(lp1942
F0.022360679774998116
aF0.010000000000000009
aa(lp1943
F2.220446049250313e-16
aF0.014142135623730807
aa(lp1944
F2.220446049250313e-16
aF0.0
aa(lp1945
F1.1102230246251565e-16
aF0.010000000000000009
aa(lp1946
F0.0
aF0.022360679774997817
aa(lp1947
F0.04999999999999982
aF0.010000000000000009
aa(lp1948
F0.009999999999999953
aF0.022360679774997918
aa(lp1949
F0.014142135623730963
aF0.014142135623730963
aa(lp1950
F0.014142135623730963
aF0.010000000000000009
aa(lp1951
F0.009999999999999898
aF0.0
aa(lp1952
F0.014142135623730923
aF0.009999999999999953
aa(lp1953
F0.031622776601683715
aF0.041231056256176644
aa(lp1954
F0.0
aF0.014142135623730952
aa(lp1955
F0.1220655561573371
aF0.09848857801796106
aa(lp1956
F0.08246211251235318
aF0.010000000000000009
aa(lp1957
F0.009999999999999981
aF0.020000000000000018
aa(lp1958
F0.014142135623730963
aF0.010000000000000009
aa(lp1959
F0.010000000000000009
aF0.022360679774997918
aa(lp1960
F0.010000000000000009
aF0.010000000000000009
aa(lp1961
F0.009999999999999981
aF0.019999999999999796
aa(lp1962
F0.060827625302982156
aF0.028284271247461905
aa(lp1963
F0.022360679774997793
aF0.03
aa(lp1964
F0.009999999999999981
aF0.030000000000000027
aa(lp1965
F0.0670820393249937
aF0.022360679774997894
aa(lp1966
F0.0
aF0.0
aa(lp1967
F0.0
aF0.0
aa(lp1968
F0.010000000000000009
aF0.0
aa(lp1969
F0.010000000000000009
aF0.0
aa(lp1970
F0.0
aF0.0
aa(lp1971
F0.0
aF0.0
aa(lp1972
F0.0
aF0.0
aa(lp1973
F0.010000000000000009
aF0.0
aa(lp1974
F0.0
aF0.0
aa(lp1975
F0.009999999999999787
aF0.0
aa(lp1976
F0.022360679774997866
aF0.010000000000000009
aa(lp1977
F0.014142135623730923
aF0.0
aa(lp1978
F0.022360679774997894
aF0.010000000000000009
aa(lp1979
F5.551115123125783e-17
aF0.014142135623730963
aa(lp1980
F0.010000000000000009
aF0.014142135623730807
aa(lp1981
F0.010000000000000009
aF0.022360679774997866
aa(lp1982
F0.010000000000000009
aF0.010000000000000009
aa(lp1983
F0.010000000000000009
aF0.010000000000000009
aa(lp1984
F0.010000000000000009
aF0.010000000000000009
aa(lp1985
F0.03162277660168382
aF0.03605551275463991
aa(lp1986
F0.02236067977499799
aF0.022360679774997918
aa(lp1987
F0.0
aF0.020000000000000018
aa(lp1988
F0.022360679774997713
aF0.022360679774997918
aa(lp1989
F0.010000000000000009
aF0.022360679774997918
aa(lp1990
F0.010000000000000009
aF0.022360679774997918
aa(lp1991
F0.014142135623730963
aF0.022360679774997918
aa(lp1992
F0.022360679774997966
aF0.05385164807134509
aa(lp1993
F0.0
aF0.014142135623730963
aa(lp1994
F0.020000000000000018
aF0.040000000000000036
aa(lp1995
F0.010000000000000009
aF0.0
aa(lp1996
F0.010000000000000009
aF0.0
aa(lp1997
F0.010000000000000009
aF0.0
aa(lp1998
F0.009999999999999787
aF0.0
aa(lp1999
F0.010000000000000009
aF0.0
aa(lp2000
F0.0
aF0.0
aa(lp2001
F0.010000000000000009
aF0.0
aa(lp2002
F0.010000000000000009
aF0.0
aa(lp2003
F0.08485281374238586
aF0.010000000000000009
aa(lp2004
F0.0360555127546399
aF0.014142135623730944
aa(lp2005
F0.020000000000000018
aF0.010000000000000009
aa(lp2006
F0.041231056256176596
aF0.044721359549995725
aa(lp2007
F0.01000000000000012
aF0.014142135623730958
aa(lp2008
F0.05656854249492389
aF0.036055512754639925
aa(lp2009
F0.03162277660168389
aF0.04242640687119289
aa(lp2010
F0.022360679774997817
aF0.040000000000000036
aa(lp2011
F0.01000000000000005
aF0.014142135623730963
aa(lp2012
F0.014142135623731041
aF0.014142135623730963
aa(lp2013
F0.009999999999999953
aF0.020000000000000018
aa(lp2014
F0.014142135623730807
aF0.022360679774997918
aa(lp2015
F0.010000000000000009
aF0.010000000000000009
aa(lp2016
F0.0
aF0.0
aa(lp2017
F0.014142135623730963
aF0.0
aa(lp2018
F0.0
aF0.0
aa(lp2019
F0.0
aF0.0
aa(lp2020
F0.0
aF0.0
aa(lp2021
F0.010000000000000009
aF0.0
aa(lp2022
F0.0
aF0.0
aa(lp2023
F2.220446049250313e-16
aF0.0
aa(lp2024
F0.010000000000000009
aF0.0
aa(lp2025
F0.014142135623730963
aF0.050990195135927896
aa(lp2026
F0.009999999999999953
aF0.014142135623730963
aa(lp2027
F0.010000000000000009
aF0.010000000000000009
aa(lp2028
F0.0
aF0.014142135623730923
aa(lp2029
F0.0
aF0.022360679774997918
aa(lp2030
F0.019999999999999962
aF0.036055512754639925
aa(lp2031
F0.014142135623730963
aF0.014142135623730963
aa(lp2032
F0.010000000000000064
aF0.036055512754639925
aa(lp2033
F0.014142135623730807
aF0.010000000000000009
aa(lp2034
F0.014142135623730944
aF0.014142135623730944
aa(lp2035
F0.05099019513592768
aF0.05000000000000003
aa(lp2036
F0.010000000000000009
aF0.0
aa(lp2037
F0.010000000000000009
aF0.0
aa(lp2038
F0.010000000000000009
aF0.0
aa(lp2039
F0.0
aF0.009999999999999787
aa(lp2040
F0.0
aF0.0
aa(lp2041
F0.0
aF0.0
aa(lp2042
F0.0
aF0.0
aa(lp2043
F0.009999999999999787
aF0.0
aa(lp2044
F0.020000000000000018
aF0.0
aa(lp2045
F0.036055512754639925
aF0.0
aa(lp2046
F0.031622776601683854
aF0.041231056256176644
aa(lp2047
F0.010000000000000009
aF0.020000000000000018
aa(lp2048
F0.010000000000000009
aF0.050990195135927875
aa(lp2049
F1.1102230246251565e-16
aF0.009999999999999898
aa(lp2050
F1.1102230246251565e-16
aF0.029999999999999916
aa(lp2051
F0.030000000000000027
aF0.041231056256176644
aa(lp2052
F0.036055512754639925
aF0.05385164807134509
aa(lp2053
F0.028284271247461926
aF0.010000000000000009
aa(lp2054
F0.010000000000000009
aF0.0
aa(lp2055
F0.014142135623730963
aF0.0
aa(lp2056
F0.010000000000000009
aF0.0
aa(lp2057
F0.0
aF0.0
aa(lp2058
F0.010000000000000009
aF0.0
aa(lp2059
F0.010000000000000009
aF0.0
aa(lp2060
F0.014142135623730963
aF0.0
aa(lp2061
F0.010000000000000009
aF0.0
aa(lp2062
F0.014142135623730807
aF0.010000000000000009
aa(lp2063
F0.05830951894845317
aF0.010000000000000009
aa(lp2064
F0.009999999999999981
aF0.022360679774997918
aa(lp2065
F0.010000000000000009
aF0.0
aa(lp2066
F0.009999999999999981
aF0.0
aa(lp2067
F1.3877787807814457e-17
aF0.009999999999999995
aa(lp2068
F0.0
aF0.0
aa(lp2069
F2.7755575615628914e-17
aF0.010000000000000009
aa(lp2070
F1.3877787807814457e-17
aF0.010000000000000002
aa(lp2071
F0.05656854249492385
aF0.014142135623730963
aa(lp2072
F0.009999999999999787
aF0.014142135623730807
aa(lp2073
F0.031622776601683736
aF0.02999999999999997
aa(lp2074
F0.010000000000000009
aF0.014142135623730963
aa(lp2075
F0.009999999999999953
aF0.04242640687119285
aa(lp2076
F0.010000000000000009
aF0.022360679774997894
aa(lp2077
F1.1102230246251565e-16
aF0.053851648071344946
aa(lp2078
F0.031622776601683854
aF0.0670820393249936
aa(lp2079
F0.030000000000000027
aF0.03162277660168382
aa(lp2080
F0.014142135623730963
aF0.010000000000000009
aa(lp2081
F0.022360679774997866
aF0.06999999999999984
aa(lp2082
F0.014142135623730963
aF0.020000000000000018
aa(lp2083
F0.010000000000000009
aF0.022360679774997918
aa(lp2084
F0.0
aF0.022360679774997918
aa(lp2085
F0.009999999999999898
aF0.028284271247461926
aa(lp2086
F0.036055512754639925
aF0.010000000000000009
aa(lp2087
F0.11401754250991379
aF0.08602325267042625
aa(lp2088
F0.020000000000000018
aF0.16401219466856723
aa(lp2089
F0.010000000000000009
aF0.022360679774997866
aa(lp2090
F0.010000000000000009
aF0.010000000000000009
aa(lp2091
F5.551115123125783e-17
aF0.022360679774997918
aa(lp2092
F0.0
aF0.010000000000000009
aa(lp2093
F0.050990195135927875
aF0.1104536101718726
aa(lp2094
F0.14212670403551889
aF0.02236067977499791
aa(lp2095
F0.010000000000000009
aF0.02236067977499791
aa(lp2096
F0.044721359549995635
aF0.07810249675906658
aa(lp2097
F0.0
aF0.014142135623730963
aa(lp2098
F0.010000000000000009
aF0.010000000000000009
aa(lp2099
F0.019999999999999962
aF0.02999999999999997
aa(lp2100
F5.551115123125783e-17
aF0.009999999999999953
aa(lp2101
F0.010000000000000009
aF0.0
aa(lp2102
F0.010000000000000009
aF0.0
aa(lp2103
F0.014142135623730963
aF0.0
aa(lp2104
F0.010000000000000009
aF0.0
aa(lp2105
F0.010000000000000231
aF0.0
aa(lp2106
F0.010000000000000009
aF0.0
aa(lp2107
F0.0
aF0.0
aa(lp2108
F0.0
aF0.0
aa(lp2109
F0.022360679774997918
aF0.014142135623730963
aa(lp2110
F0.0
aF0.05000000000000003
aa(lp2111
F0.010000000000000009
aF0.01999999999999999
aa(lp2112
F0.014142135623730963
aF0.014142135623730963
aa(lp2113
F0.010000000000000009
aF0.0
aa(lp2114
F1.3877787807814457e-17
aF0.0
aa(lp2115
F0.010000000000000009
aF0.01
aa(lp2116
F0.010000000000000009
aF0.014142135623730958
aa(lp2117
F0.0
aF0.010000000000000009
aa(lp2118
F0.0
aF0.0
aa(lp2119
F0.010000000000000009
aF0.0
aa(lp2120
F0.010000000000000009
aF0.0
aa(lp2121
F0.0
aF0.0
aa(lp2122
F0.010000000000000009
aF0.0
aa(lp2123
F0.0
aF0.0
aa(lp2124
F0.014142135623730963
aF0.0
aa(lp2125
F0.0
aF0.0
aa(lp2126
F0.028284271247462082
aF0.010000000000000009
aa(lp2127
F0.014142135623730923
aF0.0
aa(lp2128
F2.2887833992611187e-16
aF0.014142135623730963
aa(lp2129
F0.009999999999999981
aF0.036055512754639904
aa(lp2130
F0.0
aF0.022360679774997897
aa(lp2131
F0.0
aF0.014142135623730958
aa(lp2132
F0.010000000000000002
aF0.014142135623730958
aa(lp2133
F0.040000000000000015
aF0.009999999999999981
aa(lp2134
F0.03
aF0.06403124237432851
aa(lp2135
F0.014142135623730944
aF0.010000000000000009
aa(lp2136
F0.07211102550927981
aF0.036055512754639925
aa(lp2137
F0.20396078054371145
aF0.028284271247461926
aa(lp2138
F0.04999999999999993
aF0.08062257748298544
aa(lp2139
F0.036055512754639814
aF0.05
aa(lp2140
F0.009999999999999981
aF0.036055512754639925
aa(lp2141
F0.009999999999999981
aF0.022360679774997894
aa(lp2142
F0.014142135623730944
aF0.010000000000000009
aa(lp2143
F0.010000000000000009
aF0.036055512754639904
aa(lp2144
F1.3877787807814457e-17
aF0.014142135623730952
aa(lp2145
F0.022360679774997904
aF0.04123105625617659
aa(lp2146
F0.0
aF0.014142135623730963
aa(lp2147
F0.009999999999999953
aF0.022360679774997866
aa(lp2148
F0.009999999999999953
aF0.014142135623730963
aa(lp2149
F0.010000000000000009
aF0.010000000000000009
aa(lp2150
F0.03162277660168382
aF0.028284271247461846
aa(lp2151
F0.0
aF0.0
aa(lp2152
F0.010000000000000009
aF0.0
aa(lp2153
F0.010000000000000009
aF0.0
aa(lp2154
F0.0
aF0.0
aa(lp2155
F0.0
aF0.0
aa(lp2156
F0.0
aF0.0
aa(lp2157
F0.010000000000000009
aF0.0
aa(lp2158
F0.014142135623730963
aF0.0
aa(lp2159
F2.220446049250313e-16
aF0.0
aa(lp2160
F0.0
aF0.0
aa(lp2161
F4.440892098500626e-16
aF0.010000000000000009
aa(lp2162
F0.022360679774998265
aF0.0
aa(lp2163
F0.022360679774997918
aF0.020000000000000018
aa(lp2164
F0.009999999999999787
aF0.04123105625617643
aa(lp2165
F0.009999999999999981
aF0.014142135623730963
aa(lp2166
F0.009999999999999995
aF0.014142135623730952
aa(lp2167
F1.3877787807814457e-17
aF0.03605551275463992
aa(lp2168
F0.022360679774997894
aF0.13341664064126332
aa(lp2169
F0.010000000000000009
aF0.030000000000000027
aa(lp2170
F0.08062257748298557
aF0.020000000000000018
aa(lp2171
F1.1102230246251565e-16
aF0.022360679774997918
aa(lp2172
F0.04999999999999993
aF0.08944271909999167
aa(lp2173
F0.050000000000000086
aF0.08062257748298557
aa(lp2174
F0.014142135623730963
aF0.028284271247461926
aa(lp2175
F0.02000000000000024
aF0.06403124237432838
aa(lp2176
F0.028284271247462044
aF0.030000000000000027
aa(lp2177
F0.0
aF0.014142135623730963
aa(lp2178
F0.009999999999999981
aF0.022360679774997894
aa(lp2179
F0.010000000000000009
aF0.014142135623730963
aa(lp2180
F2.7755575615628914e-17
aF0.014142135623730944
aa(lp2181
F2.220446049250313e-16
aF0.022360679774997918
aa(lp2182
F2.7755575615628914e-17
aF0.014142135623730944
aa(lp2183
F0.010000000000000009
aF0.04472135954999581
aa(lp2184
F0.07211102550927966
aF0.036055512754639925
aa(lp2185
F0.010000000000000009
aF0.0
aa(lp2186
F0.010000000000000009
aF0.0
aa(lp2187
F0.009999999999999787
aF0.0
aa(lp2188
F2.220446049250313e-16
aF0.0
aa(lp2189
F0.010000000000000009
aF0.0
aa(lp2190
F0.0
aF0.0
aa(lp2191
F2.220446049250313e-16
aF0.0
aa(lp2192
F3.1401849173675503e-16
aF0.0
aa(lp2193
F0.0
aF0.0
aa(lp2194
F0.010000000000000009
aF0.010000000000000009
aa(lp2195
F0.01414213562373112
aF0.010000000000000231
aa(lp2196
F0.04242640687119281
aF0.03162277660168382
aa(lp2197
F0.014142135623730963
aF0.020000000000000018
aa(lp2198
F0.014142135623730885
aF0.031622776601683715
aa(lp2199
F0.022360679774997918
aF0.03162277660168382
aa(lp2200
F0.0
aF0.014142135623730963
aa(lp2201
F0.0
aF0.014142135623730963
aa(lp2202
F0.010000000000000009
aF0.014142135623730885
aa(lp2203
F0.014142135623730807
aF0.014142135623730807
aa(lp2204
F0.0
aF0.020000000000000018
aa(lp2205
F0.1360147050873545
aF0.06999999999999995
aa(lp2206
F0.12649110640673522
aF0.044721359549995836
aa(lp2207
F0.02236067977499799
aF0.0
aa(lp2208
F1.1102230246251565e-16
aF0.009999999999999898
aa(lp2209
F0.014142135623730963
aF0.0
aa(lp2210
F0.010000000000000009
aF0.0
aa(lp2211
F0.0
aF0.0
aa(lp2212
F0.010000000000000009
aF0.0
aa(lp2213
F0.0
aF0.0
aa(lp2214
F0.0
aF0.0
aa(lp2215
F0.0
aF0.0
aa(lp2216
F0.0
aF0.0
aa(lp2217
F0.030000000000000027
aF0.0
aa(lp2218
F0.036055512754639925
aF0.010000000000000009
aa(lp2219
F0.022360679774997918
aF0.028284271247461926
aa(lp2220
F0.01000000000000012
aF0.020000000000000018
aa(lp2221
F0.0
aF0.020000000000000018
aa(lp2222
F0.014142135623730885
aF0.039999999999999925
aa(lp2223
F0.0
aF0.020000000000000018
aa(lp2224
F0.010000000000000009
aF0.020000000000000018
aa(lp2225
F0.019999999999999907
aF0.020000000000000018
aa(lp2226
F0.010000000000000009
aF0.010000000000000009
aa(lp2227
F0.0
aF0.020000000000000018
aa(lp2228
F1.1102230246251565e-16
aF0.020000000000000018
aa(lp2229
F0.010000000000000009
aF0.010000000000000009
aa(lp2230
F0.010000000000000009
aF0.031622776601683715
aa(lp2231
F0.0
aF0.0
aa(lp2232
F0.0
aF0.0
aa(lp2233
F0.0
aF0.0
aa(lp2234
F0.010000000000000009
aF0.0
aa(lp2235
F0.0
aF0.0
aa(lp2236
F0.0
aF0.0
aa(lp2237
F0.0
aF0.0
aa(lp2238
F0.0
aF0.0
aa(lp2239
F0.0
aF0.0
aa(lp2240
F0.04123105625617669
aF0.010000000000000009
aa(lp2241
F0.019999999999999907
aF0.022360679774997918
aa(lp2242
F0.029999999999999916
aF0.014142135623730963
aa(lp2243
F0.0
aF0.0
aa(lp2244
F0.022360679774997918
aF0.010000000000000009
aa(lp2245
F0.07
aF0.050000000000000044
aa(lp2246
F0.009999999999999787
aF0.014142135623730963
aa(lp2247
F0.010000000000000009
aF0.014142135623730963
aa(lp2248
F0.009999999999999787
aF0.014142135623730963
aa(lp2249
F0.0
aF0.014142135623730963
aa(lp2250
F0.0
aF0.014142135623730963
aa(lp2251
F0.16124515496597103
aF0.040000000000000036
aa(lp2252
F0.0
aF0.010000000000000009
aa(lp2253
F0.010000000000000009
aF0.022360679774997866
aa(lp2254
F0.010000000000000009
aF0.014142135623730963
aa(lp2255
F0.009999999999999953
aF0.010000000000000009
aa(lp2256
F2.7755575615628914e-17
aF0.01999999999999999
aa(lp2257
F0.014142135623730963
aF0.022360679774997918
aa(lp2258
F0.010000000000000009
aF0.01999999999999999
aa(lp2259
F0.010000000000000009
aF0.010000000000000009
aa(lp2260
F2.7755575615628914e-17
aF0.009999999999999981
aa(lp2261
F0.009999999999999995
aF0.009999999999999995
aa(lp2262
F0.0
aF0.0
aa(lp2263
F0.0
aF0.0
aa(lp2264
F0.0
aF0.0
aa(lp2265
F0.0
aF0.0
aa(lp2266
F0.010000000000000009
aF0.0
aa(lp2267
F0.0
aF0.0
aa(lp2268
F0.0
aF0.0
aa(lp2269
F2.220446049250313e-16
aF0.0
aa(lp2270
F0.04242640687119289
aF0.010000000000000009
aa(lp2271
F0.009999999999999787
aF0.130384048104053
aa(lp2272
F0.01414213562373112
aF0.036055512754639876
aa(lp2273
F0.0
aF0.014142135623730963
aa(lp2274
F0.039999999999999925
aF0.039999999999999925
aa(lp2275
F0.05385164807134509
aF0.040000000000000036
aa(lp2276
F0.010000000000000009
aF0.010000000000000009
aa(lp2277
F0.0
aF0.020000000000000018
aa(lp2278
F0.03162277660168382
aF0.022360679774997904
aa(lp2279
F0.02236067977499814
aF0.014142135623730963
aa(lp2280
F0.010000000000000009
aF0.022360679774997817
aa(lp2281
F0.0
aF0.014142135623730963
aa(lp2282
F0.010000000000000009
aF0.014142135623730963
aa(lp2283
F0.014142135623731041
aF0.022360679774997918
aa(lp2284
F0.0
aF0.014142135623730963
aa(lp2285
F2.220446049250313e-16
aF0.022360679774997918
aa(lp2286
F0.0
aF0.014142135623730963
aa(lp2287
F1.1102230246251565e-16
aF0.014142135623730885
aa(lp2288
F0.0
aF0.022360679774997918
aa(lp2289
F0.0
aF0.014142135623730963
aa(lp2290
F0.010000000000000009
aF0.03162277660168382
aa(lp2291
F1.1102230246251565e-16
aF0.014142135623730963
aa(lp2292
F5.551115123125783e-17
aF0.04472135954999579
aa(lp2293
F5.551115123125783e-17
aF0.05830951894845301
aa(lp2294
F0.0854400374531753
aF0.0707106781186546
aa(lp2295
F0.07280109889280502
aF0.12649110640673528
aa(lp2296
F5.551115123125783e-17
aF0.020000000000000018
aa(lp2297
F0.010000000000000009
aF0.010000000000000009
aa(lp2298
F0.0
aF0.020000000000000018
aa(lp2299
F0.030000000000000027
aF0.050000000000000044
aa(lp2300
F0.022360679774997942
aF0.10816653826391959
aa(lp2301
F0.0
aF0.014142135623730963
aa(lp2302
F0.014142135623730963
aF0.022360679774997918
aa(lp2303
F0.010000000000000009
aF0.0
aa(lp2304
F0.010000000000000009
aF0.0
aa(lp2305
F0.010000000000000009
aF0.0
aa(lp2306
F2.220446049250313e-16
aF0.0
aa(lp2307
F0.0
aF0.0
aa(lp2308
F0.010000000000000009
aF0.0
aa(lp2309
F0.0
aF0.0
aa(lp2310
F0.010000000000000009
aF0.0
aa(lp2311
F0.10816653826391968
aF0.014142135623730963
aa(lp2312
F0.040000000000000036
aF0.07211102550927975
aa(lp2313
F0.010000000000000009
aF0.014142135623730963
aa(lp2314
F1.1102230246251565e-16
aF0.020000000000000018
aa(lp2315
F0.014142135623730963
aF0.014142135623730963
aa(lp2316
F0.009999999999999953
aF0.05656854249492381
aa(lp2317
F0.022360679774997717
aF0.0583095189484529
aa(lp2318
F0.028284271247462033
aF0.020000000000000004
aa(lp2319
F0.010000000000000023
aF0.014142135623730958
aa(lp2320
F2.2247786310271853e-16
aF0.0223606797749979
aa(lp2321
F0.0
aF0.01
aa(lp2322
F0.02236067977499803
aF0.05000000000000003
aa(lp2323
F0.020000000000000018
aF0.0
aa(lp2324
F0.010000000000000009
aF0.0
aa(lp2325
F0.01414213562373112
aF0.0
aa(lp2326
F0.010000000000000009
aF0.0
aa(lp2327
F0.0
aF0.0
aa(lp2328
F0.0
aF0.0
aa(lp2329
F0.010000000000000009
aF0.010000000000000009
aa(lp2330
F0.014142135623730963
aF0.022360679774997918
aa(lp2331
F0.05099019513592783
aF0.01414213562373112
aa(lp2332
F0.0
aF0.010000000000000009
aa(lp2333
F0.0
aF0.0
aa(lp2334
F0.0
aF0.009999999999999953
aa(lp2335
F0.010000000000000009
aF0.0
aa(lp2336
F0.0
aF0.010000000000000009
aa(lp2337
F0.0
aF0.010000000000000009
aa(lp2338
F0.0
aF0.010000000000000009
aa(lp2339
F0.0
aF0.0
aa(lp2340
F0.0
aF0.0
aa(lp2341
F0.0
aF0.0
aa(lp2342
F0.0
aF0.0
aa(lp2343
F0.0
aF0.0
aa(lp2344
F0.0
aF0.0
aa(lp2345
F0.0
aF0.0
aa(lp2346
F0.0
aF0.0
aa(lp2347
F0.0
aF0.0
aa(lp2348
F0.022360679774997717
aF0.0
aa(lp2349
F0.014142135623731041
aF0.014142135623730963
aa(lp2350
F0.010000000000000009
aF0.014142135623730885
aa(lp2351
F0.010000000000000009
aF0.010000000000000009
aa(lp2352
F0.0
aF0.014142135623730963
aa(lp2353
F0.010000000000000009
aF0.014142135623730963
aa(lp2354
F0.014142135623730982
aF0.03162277660168372
aa(lp2355
F0.01999999999999999
aF0.041231056256176644
aa(lp2356
F0.0
aF0.020000000000000018
aa(lp2357
F0.036055512754639925
aF0.06
aa(lp2358
F0.010000000000000009
aF0.0
aa(lp2359
F0.014142135623730963
aF0.0
aa(lp2360
F0.010000000000000009
aF0.0
aa(lp2361
F2.220446049250313e-16
aF0.0
aa(lp2362
F2.220446049250313e-16
aF0.0
aa(lp2363
F0.0
aF0.0
aa(lp2364
F0.010000000000000009
aF0.0
aa(lp2365
F0.03162277660168389
aF0.010000000000000009
aa(lp2366
F0.010000000000000009
aF0.010000000000000009
aa(lp2367
F0.022360679774997904
aF0.014142135623730958
aa(lp2368
F0.0
aF0.02236067977499791
aa(lp2369
F0.0
aF0.014142135623730958
aa(lp2370
F0.0
aF0.014142135623730958
aa(lp2371
F0.0
aF0.010000000000000009
aa(lp2372
F0.0
aF0.0
aa(lp2373
F2.220446049250313e-16
aF0.010000000000000009
aa(lp2374
F0.010000000000000009
aF0.010000000000000009
aa(lp2375
F0.022360679774997966
aF0.0
aa(lp2376
F0.020000000000000018
aF0.010000000000000009
aa(lp2377
F0.10630145812734638
aF0.014142135623730963
aa(lp2378
F0.028284271247461867
aF0.07211102550927981
aa(lp2379
F0.04123105625617658
aF0.053851648071345015
aa(lp2380
F0.040000000000000036
aF0.08062257748298551
aa(lp2381
F0.014142135623731041
aF0.07615773105863916
aa(lp2382
F0.014142135623730807
aF0.050990195135927674
aa(lp2383
F0.010000000000000009
aF0.010000000000000009
aa(lp2384
F0.4622769732530488
aF0.07211102550927972
aa(lp2385
F0.5024937810560444
aF0.09219544457292872
aa(lp2386
F0.010000000000000009
aF0.022360679774997918
aa(lp2387
F0.08062257748298557
aF0.03162277660168382
aa(lp2388
F0.036055512754639925
aF0.04123105625617643
aa(lp2389
F0.022360679774998116
aF0.022360679774997918
aa(lp2390
F0.0
aF0.014142135623730963
aa(lp2391
F0.08246211251235318
aF0.08062257748298537
aa(lp2392
F0.014142135623730807
aF0.009999999999999787
aa(lp2393
F0.014142135623730963
aF0.0
aa(lp2394
F0.010000000000000009
aF0.0
aa(lp2395
F0.010000000000000009
aF0.0
aa(lp2396
F0.009999999999999787
aF0.0
aa(lp2397
F0.014142135623730807
aF0.0
aa(lp2398
F0.010000000000000009
aF0.0
aa(lp2399
F0.07211102550927985
aF0.010000000000000231
aa(lp2400
F0.029999999999999916
aF0.020000000000000018
aa(lp2401
F0.010000000000000009
aF0.022360679774997918
aa(lp2402
F0.0
aF0.020000000000000018
aa(lp2403
F1.1102230246251565e-16
aF0.019999999999999907
aa(lp2404
F0.0
aF0.020000000000000018
aa(lp2405
F0.010000000000000009
aF0.010000000000000009
aa(lp2406
F0.0
aF0.0
aa(lp2407
F0.010000000000000009
aF0.010000000000000009
aa(lp2408
F0.03162277660168404
aF0.036055512754639904
aa(lp2409
F0.03162277660168382
aF0.014142135623730963
aa(lp2410
F0.009999999999999981
aF0.020000000000000018
aa(lp2411
F0.010000000000000009
aF0.05656854249492385
aa(lp2412
F0.014142135623730944
aF0.030000000000000027
aa(lp2413
F0.34985711369071787
aF0.022360679774997918
aa(lp2414
F0.36249137920783725
aF0.050990195135927785
aa(lp2415
F1.1114420827879992e-16
aF0.08544003745317538
aa(lp2416
F0.010000000000000009
aF0.0608276253029822
aa(lp2417
F2.7755575615628914e-17
aF0.009999999999999981
aa(lp2418
F0.0
aF0.0
aa(lp2419
F0.0
aF0.0
aa(lp2420
F0.0
aF0.0
aa(lp2421
F0.0
aF0.0
aa(lp2422
F0.0
aF0.0
aa(lp2423
F0.0
aF0.0
aa(lp2424
F0.0
aF0.0
aa(lp2425
F0.010000000000000009
aF0.0
aa(lp2426
F0.0
aF0.0
aa(lp2427
F0.010000000000000009
aF0.0
aa(lp2428
F0.0
aF0.0
aa(lp2429
F0.010000000000000231
aF0.01414213562373112
aa(lp2430
F0.022360679774997817
aF0.0
aa(lp2431
F0.010000000000000009
aF0.050000000000000044
aa(lp2432
F0.010000000000000009
aF0.020000000000000018
aa(lp2433
F0.014142135623730963
aF0.014142135623730963
aa(lp2434
F0.010000000000000009
aF0.010000000000000009
aa(lp2435
F0.0
aF0.010000000000000009
aa(lp2436
F0.0
aF0.014142135623730963
aa(lp2437
F0.010000000000000009
aF0.014142135623730963
aa(lp2438
F0.1252996408614166
aF0.019999999999999962
aa(lp2439
F0.014142135623730963
aF0.028284271247461926
aa(lp2440
F0.02236067977499814
aF0.04999999999999982
aa(lp2441
F0.014142135623730963
aF0.010000000000000009
aa(lp2442
F0.04123105625617662
aF0.049999999999999864
aa(lp2443
F0.0
aF0.0
aa(lp2444
F0.010000000000000009
aF0.0
aa(lp2445
F0.010000000000000009
aF0.0
aa(lp2446
F0.010000000000000009
aF0.0
aa(lp2447
F0.014142135623730807
aF0.0
aa(lp2448
F0.0
aF0.0
aa(lp2449
F0.0
aF0.0
aa(lp2450
F2.220446049250313e-16
aF0.0
aa(lp2451
F0.010000000000000009
aF0.010000000000000009
aa(lp2452
F0.022360679774998102
aF0.03605551275463991
aa(lp2453
F0.009999999999999981
aF0.022360679774997894
aa(lp2454
F0.020000000000000018
aF0.041231056256176644
aa(lp2455
F0.010000000000000009
aF0.04242640687119287
aa(lp2456
F2.7755575615628914e-17
aF0.04242640687119287
aa(lp2457
F0.0
aF0.036055512754639925
aa(lp2458
F0.022360679774997942
aF0.020000000000000018
aa(lp2459
F2.7755575615628914e-17
aF0.014142135623730963
aa(lp2460
F0.029999999999999916
aF0.03162277660168382
aa(lp2461
F0.022360679774998015
aF0.07071067811865474
aa(lp2462
F0.010000000000000009
aF0.010000000000000009
aa(lp2463
F0.0
aF0.020000000000000018
aa(lp2464
F0.020000000000000018
aF0.08062257748298557
aa(lp2465
F0.014142135623730963
aF0.020000000000000018
aa(lp2466
F0.010000000000000009
aF0.022360679774997918
aa(lp2467
F0.010000000000000009
aF0.020000000000000018
aa(lp2468
F0.010000000000000009
aF0.036055512754639925
aa(lp2469
F0.0
aF0.020000000000000018
aa(lp2470
F0.0
aF0.022360679774997918
aa(lp2471
F1.1102230246251565e-16
aF0.019999999999999907
aa(lp2472
F0.014142135623731041
aF0.022360679774997866
aa(lp2473
F0.010000000000000009
aF0.05830951894845306
aa(lp2474
F0.014142135623730963
aF0.0
aa(lp2475
F0.014142135623730963
aF0.0
aa(lp2476
F0.0
aF0.0
aa(lp2477
F0.010000000000000009
aF0.0
aa(lp2478
F2.220446049250313e-16
aF0.0
aa(lp2479
F0.010000000000000009
aF0.0
aa(lp2480
F0.010000000000000009
aF0.0
aa(lp2481
F0.022360679774997817
aF0.0
aa(lp2482
F1.1102230246251565e-16
aF0.010000000000000009
aa(lp2483
F1.1102230246251565e-16
aF0.010000000000000009
aa(lp2484
F0.0
aF0.0
aa(lp2485
F0.010000000000000009
aF0.010000000000000009
aa(lp2486
F0.010000000000000009
aF0.010000000000000009
aa(lp2487
F0.0
aF0.0
aa(lp2488
F0.014142135623730963
aF0.014142135623730963
aa(lp2489
F0.010000000000000009
aF0.010000000000000009
aa(lp2490
F1.1102230246251565e-16
aF0.010000000000000009
aa(lp2491
F0.0
aF0.020000000000000018
aa(lp2492
F0.05656854249492383
aF0.020000000000000018
aa(lp2493
F0.010000000000000009
aF0.010000000000000009
aa(lp2494
F0.014142135623730963
aF0.04999999999999999
aa(lp2495
F0.040000000000000036
aF0.03162277660168382
aa(lp2496
F0.009999999999999953
aF0.010000000000000009
aa(lp2497
F0.010000000000000009
aF0.010000000000000009
aa(lp2498
F2.220446049250313e-16
aF0.010000000000000009
aa(lp2499
F0.010000000000000009
aF0.010000000000000009
aa(lp2500
F0.009999999999999898
aF0.044721359549995836
aa(lp2501
F0.010000000000000009
aF0.0
aa(lp2502
F0.014142135623730963
aF0.0
aa(lp2503
F0.0
aF0.0
aa(lp2504
F0.0
aF0.0
aa(lp2505
F0.0
aF0.0
aa(lp2506
F0.010000000000000009
aF0.0
aa(lp2507
F0.0
aF0.0
aa(lp2508
F0.010000000000000009
aF0.0
aa(lp2509
F0.036055512754639835
aF0.010000000000000009
aa(lp2510
F0.0
aF0.0360555127546399
aa(lp2511
F0.014142135623730885
aF0.010000000000000009
aa(lp2512
F5.551115123125783e-17
aF0.019999999999999962
aa(lp2513
F0.010000000000000009
aF0.03162277660168382
aa(lp2514
F0.05000000000000018
aF0.022360679774997914
aa(lp2515
F0.014142135623730958
aF0.022360679774997897
aa(lp2516
F0.0
aF0.022360679774997914
aa(lp2517
F0.10000000000000009
aF0.03162277660168382
aa(lp2518
F1.3877787807814457e-17
aF0.010000000000000009
aa(lp2519
F0.0
aF0.010000000000000009
aa(lp2520
F0.009999999999999787
aF0.05830951894845304
aa(lp2521
F0.04242640687119273
aF0.014142135623730963
aa(lp2522
F0.05099019513592791
aF0.010000000000000009
aa(lp2523
F0.010000000000000231
aF0.010000000000000009
aa(lp2524
F0.010000000000000009
aF0.010000000000000009
aa(lp2525
F0.010000000000000009
aF0.0
aa(lp2526
F1.1102230246251565e-16
aF0.014142135623730885
aa(lp2527
F0.0
aF0.014142135623730963
aa(lp2528
F0.009999999999999898
aF0.014142135623730885
aa(lp2529
F0.0
aF0.0
aa(lp2530
F0.0
aF0.0
aa(lp2531
F0.0
aF0.0
aa(lp2532
F0.010000000000000009
aF0.0
aa(lp2533
F0.0
aF0.0
aa(lp2534
F0.010000000000000009
aF0.0
aa(lp2535
F0.0
aF0.0
aa(lp2536
F0.0
aF0.0
aa(lp2537
F0.04123105625617669
aF0.0
aa(lp2538
F0.022360679774997966
aF0.014142135623730963
aa(lp2539
F0.010000000000000009
aF0.022360679774997918
aa(lp2540
F0.014142135623730963
aF0.014142135623730963
aa(lp2541
F0.0
aF0.014142135623730963
aa(lp2542
F0.0
aF0.010000000000000009
aa(lp2543
F0.04999999999999999
aF0.06708203932499375
aa(lp2544
F0.022360679774997817
aF0.031622776601683576
aa(lp2545
F0.010000000000000009
aF0.014142135623730963
aa(lp2546
F0.0
aF0.010000000000000009
aa(lp2547
F0.0
aF0.0
aa(lp2548
F0.0
aF0.0
aa(lp2549
F0.0
aF0.0
aa(lp2550
F0.0
aF0.0
aa(lp2551
F0.0
aF0.0
aa(lp2552
F0.0
aF0.0
aa(lp2553
F0.0
aF0.0
aa(lp2554
F0.01414213562373112
aF0.009999999999999787
aa(lp2555
F0.010000000000000009
aF0.022360679774997918
aa(lp2556
F0.010000000000000009
aF0.02999999999999997
aa(lp2557
F0.010000000000000009
aF0.022360679774997918
aa(lp2558
F0.009999999999999953
aF0.010000000000000009
aa(lp2559
F0.0
aF0.020000000000000018
aa(lp2560
F5.551115123125783e-17
aF0.009999999999999953
aa(lp2561
F0.0
aF0.020000000000000018
aa(lp2562
F2.7755575615628914e-17
aF0.022360679774997904
aa(lp2563
F0.010000000000000009
aF0.0
aa(lp2564
F0.0
aF0.0
aa(lp2565
F0.0
aF0.0
aa(lp2566
F0.0
aF0.0
aa(lp2567
F0.0
aF0.0
aa(lp2568
F0.0
aF0.0
aa(lp2569
F0.0
aF0.0
aa(lp2570
F0.0
aF0.0
aa(lp2571
F0.042426406871192965
aF0.010000000000000009
aa(lp2572
F0.010000000000000009
aF0.010000000000000009
aa(lp2573
F5.551115123125783e-17
aF0.014142135623730963
aa(lp2574
F0.010000000000000009
aF0.020000000000000018
aa(lp2575
F0.010000000000000009
aF0.022360679774997866
aa(lp2576
F5.551115123125783e-17
aF0.022360679774997866
aa(lp2577
F0.010000000000000009
aF0.010000000000000009
aa(lp2578
F0.0
aF0.010000000000000009
aa(lp2579
F0.010000000000000009
aF0.014142135623730963
aa(lp2580
F0.0
aF0.010000000000000009
aa(lp2581
F0.031622776601683875
aF0.009999999999999995
aa(lp2582
F0.05000000000000003
aF0.05000000000000003
aa(lp2583
F0.014142135623730952
aF0.014142135623730952
aa(lp2584
F0.0
aF0.0
aa(lp2585
F0.0
aF0.0
aa(lp2586
F0.0
aF0.0
aa(lp2587
F0.0
aF0.0
aa(lp2588
F0.0
aF0.0
aa(lp2589
F0.0
aF0.0
aa(lp2590
F0.0
aF0.0
aa(lp2591
F0.0
aF0.0
aa(lp2592
F0.0
aF0.0
aa(lp2593
F0.022360679774998015
aF0.019999999999999907
aa(lp2594
F0.010000000000000009
aF0.010000000000000009
aa(lp2595
F0.010000000000000009
aF0.014142135623730963
aa(lp2596
F0.014142135623730963
aF0.010000000000000009
aa(lp2597
F0.010000000000000009
aF0.022360679774997918
aa(lp2598
F0.010000000000000009
aF0.009999999999999953
aa(lp2599
F0.010000000000000009
aF0.010000000000000009
aa(lp2600
F0.10770329614268989
aF0.022360679774997717
aa(lp2601
F0.02999999999999997
aF0.0
aa(lp2602
F0.010000000000000009
aF0.022360679774997918
aa(lp2603
F0.010000000000000009
aF0.020000000000000018
aa(lp2604
F0.009999999999999953
aF0.03162277660168382
aa(lp2605
F0.010000000000000009
aF0.010000000000000009
aa(lp2606
F0.053851648071344946
aF0.1252996408614168
aa(lp2607
F0.21400934559032692
aF0.13601470508735444
aa(lp2608
F0.009999999999999981
aF0.05099019513592784
aa(lp2609
F0.010000000000000009
aF0.022360679774997894
aa(lp2610
F0.010000000000000231
aF0.022360679774997918
aa(lp2611
F0.010000000000000064
aF0.06708203932499375
aa(lp2612
F0.010000000000000064
aF0.031622776601683805
aa(lp2613
F0.014142135623730963
aF0.014142135623730963
aa(lp2614
F0.010000000000000009
aF0.022360679774997918
aa(lp2615
F0.010000000000000009
aF0.014142135623730963
aa(lp2616
F0.010000000000000009
aF0.014142135623730963
aa(lp2617
F0.02828427124746173
aF0.0
aa(lp2618
F0.01999999999999999
aF0.04999999999999985
aa(lp2619
F0.010000000000000009
aF0.014142135623730963
aa(lp2620
F0.0
aF0.0
aa(lp2621
F0.010000000000000009
aF0.0
aa(lp2622
F0.0
aF0.0
aa(lp2623
F0.010000000000000009
aF0.0
aa(lp2624
F0.0
aF0.0
aa(lp2625
F0.0
aF0.0
aa(lp2626
F2.220446049250313e-16
aF0.0
aa(lp2627
F4.577566798522237e-16
aF0.0
aa(lp2628
F0.04472135954999573
aF0.010000000000000009
aa(lp2629
F2.220446049250313e-16
aF0.019999999999999796
aa(lp2630
F0.009999999999999953
aF0.014142135623730963
aa(lp2631
F0.0
aF0.010000000000000009
aa(lp2632
F0.053851648071345036
aF0.050000000000000024
aa(lp2633
F0.010000000000000009
aF0.036055512754639904
aa(lp2634
F0.009999999999999787
aF0.022360679774997717
aa(lp2635
F0.014142135623730963
aF0.028284271247461905
aa(lp2636
F0.022360679774997918
aF0.07280109889280524
aa(lp2637
F0.563648826841678
aF0.08062257748298557
aa(lp2638
F0.5594640292279747
aF0.06403124237432854
aa(lp2639
F0.014142135623730963
aF0.031622776601683784
aa(lp2640
F0.010000000000000009
aF0.014142135623730963
aa(lp2641
F0.010000000000000009
aF0.022360679774997918
aa(lp2642
F0.014142135623730963
aF0.0
aa(lp2643
F0.022360679774997914
aF0.04472135954999563
aa(lp2644
F0.014142135623730958
aF0.022360679774997904
aa(lp2645
F0.010000000000000009
aF0.014142135623730952
aa(lp2646
F0.022360679774997918
aF0.040000000000000036
aa(lp2647
F0.031622776601683715
aF0.022360679774997918
aa(lp2648
F0.010000000000000009
aF0.0
aa(lp2649
F0.010000000000000009
aF0.0
aa(lp2650
F0.010000000000000009
aF0.0
aa(lp2651
F0.014142135623730963
aF0.0
aa(lp2652
F0.0
aF0.010000000000000009
aa(lp2653
F0.0
aF0.0
aa(lp2654
F0.010000000000000231
aF0.0
aa(lp2655
F0.022360679774998015
aF0.010000000000000009
aa(lp2656
F0.010000000000000009
aF0.014142135623730963
aa(lp2657
F0.010000000000000009
aF0.010000000000000009
aa(lp2658
F0.010000000000000009
aF0.010000000000000009
aa(lp2659
F0.0
aF0.010000000000000009
aa(lp2660
F0.0
aF0.009999999999999898
aa(lp2661
F0.0
aF0.010000000000000009
aa(lp2662
F0.014142135623730952
aF0.010000000000000009
aa(lp2663
F0.010000000000000009
aF0.010000000000000009
aa(lp2664
F0.014142135623730963
aF0.010000000000000009
aa(lp2665
F0.010000000000000009
aF0.014142135623730963
aa(lp2666
F0.010000000000000009
aF0.020000000000000018
aa(lp2667
F0.014142135623730963
aF0.010000000000000009
aa(lp2668
F5.551115123125783e-17
aF0.020000000000000018
aa(lp2669
F0.014142135623730982
aF0.010000000000000009
aa(lp2670
F0.0
aF0.020000000000000018
aa(lp2671
F0.014142135623730982
aF0.01999999999999999
aa(lp2672
F0.014142135623730963
aF0.014142135623730963
aa(lp2673
F0.010000000000000009
aF0.020000000000000018
aa(lp2674
F0.05000000000000003
aF0.03162277660168382
aa(lp2675
F0.009999999999999981
aF0.022360679774997894
aa(lp2676
F0.019999999999999796
aF0.03162277660168375
aa(lp2677
F0.022360679774997918
aF0.010000000000000009
aa(lp2678
F0.010000000000000009
aF0.014142135623730963
aa(lp2679
F0.014142135623730963
aF0.020000000000000018
aa(lp2680
F0.014142135623730963
aF0.014142135623730963
aa(lp2681
F2.2887833992611187e-16
aF0.014142135623730963
aa(lp2682
F0.022360679774997918
aF0.030000000000000027
aa(lp2683
F0.010000000000000231
aF0.08062257748298537
aa(lp2684
F0.24166091947189144
aF0.010000000000000009
aa(lp2685
F0.24166091947189144
aF0.060827625302982254
aa(lp2686
F1.1102230246251565e-16
aF0.058309518948453
aa(lp2687
F2.220446049250313e-16
aF0.04242640687119285
aa(lp2688
F0.0
aF0.022360679774997918
aa(lp2689
F5.551115123125783e-17
aF0.0
aa(lp2690
F0.014142135623730923
aF0.010000000000000009
aa(lp2691
F0.014142135623730923
aF0.009999999999999953
aa(lp2692
F0.010000000000000009
aF0.010000000000000009
aa(lp2693
F0.010000000000000009
aF0.0
aa(lp2694
F0.014142135623730807
aF0.0
aa(lp2695
F0.014142135623730963
aF0.0
aa(lp2696
F0.0
aF0.0
aa(lp2697
F0.0
aF0.0
aa(lp2698
F0.010000000000000009
aF0.0
aa(lp2699
F2.220446049250313e-16
aF0.0
aa(lp2700
F0.0
aF0.0
aa(lp2701
F0.0
aF0.0
aa(lp2702
F0.010000000000000009
aF0.014142135623730963
aa(lp2703
F0.022360679774997918
aF0.02236067977499791
aa(lp2704
F0.0
aF0.0316227766016838
aa(lp2705
F1.3877787807814457e-17
aF0.020000000000000004
aa(lp2706
F1.3877787807814457e-17
aF0.014142135623730958
aa(lp2707
F1.3877787807814457e-17
aF0.02
aa(lp2708
F0.010000000000000009
aF0.014142135623730958
aa(lp2709
F0.010000000000000009
aF0.02
aa(lp2710
F0.0
aF0.0
aa(lp2711
F0.0
aF0.0
aa(lp2712
F0.0
aF0.0
aa(lp2713
F0.0
aF0.0
aa(lp2714
F0.0
aF0.0
aa(lp2715
F0.0
aF0.0
aa(lp2716
F0.0
aF0.0
aa(lp2717
F0.0
aF0.0
aa(lp2718
F0.0
aF0.0
aa(lp2719
F0.020000000000000018
aF0.010000000000000009
aa(lp2720
F0.020000000000000018
aF0.022360679774997918
aa(lp2721
F0.014142135623730807
aF0.02828427124746173
aa(lp2722
F0.02000000000000013
aF0.0
aa(lp2723
F0.010000000000000009
aF0.014142135623730963
aa(lp2724
F0.014142135623731041
aF0.09486832980505136
aa(lp2725
F0.0360555127546399
aF0.07071067811865471
aa(lp2726
F0.0
aF0.0
aa(lp2727
F0.0
aF0.0
aa(lp2728
F0.0
aF0.0
aa(lp2729
F0.010000000000000009
aF0.0
aa(lp2730
F0.014142135623730963
aF0.0
aa(lp2731
F0.0
aF0.0
aa(lp2732
F0.0
aF0.0
aa(lp2733
F2.220446049250313e-16
aF0.0
aa(lp2734
F0.010000000000000009
aF0.009999999999999787
aa(lp2735
F0.0
aF0.10049875621120877
aa(lp2736
F0.010000000000000009
aF0.022360679774997717
aa(lp2737
F0.010000000000000009
aF0.020000000000000018
aa(lp2738
F0.010000000000000009
aF0.014142135623730963
aa(lp2739
F0.014142135623730963
aF0.020000000000000018
aa(lp2740
F0.014142135623730963
aF0.014142135623730963
aa(lp2741
F0.010000000000000009
aF0.014142135623730963
aa(lp2742
F0.014142135623730807
aF0.014142135623730963
aa(lp2743
F0.014142135623730963
aF0.020000000000000018
aa(lp2744
F5.551115123125783e-17
aF0.019999999999999962
aa(lp2745
F0.014142135623730944
aF0.0
aa(lp2746
F0.014142135623730923
aF0.010000000000000009
aa(lp2747
F0.019999999999999796
aF0.03605551275463992
aa(lp2748
F0.010000000000000009
aF0.028284271247461905
aa(lp2749
F0.010000000000000009
aF0.014142135623730944
aa(lp2750
F0.010000000000000009
aF0.022360679774997904
aa(lp2751
F0.010000000000000009
aF0.0
aa(lp2752
F0.009999999999999995
aF0.020000000000000004
aa(lp2753
F0.010000000000000009
aF0.01999999999999999
aa(lp2754
F0.014142135623730982
aF0.022360679774997866
aa(lp2755
F0.010000000000000009
aF0.010000000000000009
aa(lp2756
F0.028284271247461926
aF0.022360679774997918
aa(lp2757
F0.010000000000000009
aF0.014142135623730963
aa(lp2758
F0.014142135623730963
aF0.028284271247461926
aa(lp2759
F0.010000000000000009
aF0.0640312423743284
aa(lp2760
F0.014142135623730807
aF0.036055512754639925
aa(lp2761
F0.0
aF0.0
aa(lp2762
F0.010000000000000009
aF0.0
aa(lp2763
F0.0
aF0.0
aa(lp2764
F0.010000000000000009
aF0.0
aa(lp2765
F0.0
aF0.0
aa(lp2766
F0.0
aF0.0
aa(lp2767
F0.0
aF0.0
aa(lp2768
F0.0
aF0.0
aa(lp2769
F0.0
aF0.0
aa(lp2770
F0.0
aF0.0
aa(lp2771
F0.01414213562373112
aF0.0
aa(lp2772
F0.010000000000000009
aF0.010000000000000009
aa(lp2773
F0.0
aF0.010000000000000009
aa(lp2774
F0.0
aF0.010000000000000009
aa(lp2775
F0.010000000000000009
aF0.0
aa(lp2776
F0.0
aF0.0
aa(lp2777
F0.010000000000000009
aF0.010000000000000009
aa(lp2778
F0.0
aF0.0
aa(lp2779
F0.0
aF0.010000000000000009
aa(lp2780
F0.0
aF0.0
aa(lp2781
F0.04242640687119287
aF0.022360679774997918
aa(lp2782
F0.010000000000000009
aF0.014142135623730963
aa(lp2783
F0.0
aF0.014142135623730963
aa(lp2784
F0.014142135623730963
aF0.028284271247461926
aa(lp2785
F0.014142135623730963
aF0.028284271247461888
aa(lp2786
F0.010000000000000009
aF0.022360679774997918
aa(lp2787
F0.0
aF0.014142135623730963
aa(lp2788
F0.010000000000000009
aF0.03162277660168377
aa(lp2789
F0.02999999999999997
aF0.04472135954999573
aa(lp2790
F0.010000000000000009
aF0.050990195135927875
aa(lp2791
F0.014142135623730944
aF0.0
aa(lp2792
F0.0
aF0.0
aa(lp2793
F0.010000000000000009
aF0.0
aa(lp2794
F0.010000000000000009
aF0.0
aa(lp2795
F0.0
aF0.0
aa(lp2796
F0.0
aF0.0
aa(lp2797
F0.0
aF0.0
aa(lp2798
F0.0
aF0.0
aa(lp2799
F0.009999999999999787
aF0.0
aa(lp2800
F0.010000000000000009
aF0.0
aa(lp2801
F0.010000000000000009
aF0.010000000000000009
aa(lp2802
F0.022360679774997894
aF0.05656854249492369
aa(lp2803
F0.010000000000000009
aF0.022360679774997918
aa(lp2804
F0.010000000000000009
aF0.014142135623730963
aa(lp2805
F5.551115123125783e-17
aF0.014142135623730963
aa(lp2806
F0.010000000000000009
aF0.014142135623730923
aa(lp2807
F0.010000000000000009
aF0.014142135623730963
aa(lp2808
F5.551115123125783e-17
aF0.014142135623730963
aa(lp2809
F0.0
aF0.010000000000000009
aa(lp2810
F0.05830951894845304
aF0.08944271909999159
aa(lp2811
F0.030000000000000027
aF0.010000000000000009
aa(lp2812
F0.08944271909999157
aF0.01999999999999999
aa(lp2813
F0.029999999999999805
aF0.03162277660168382
aa(lp2814
F0.02236067977499785
aF0.04472135954999583
aa(lp2815
F0.07211102550927974
aF0.03162277660168381
aa(lp2816
F0.022360679774997894
aF0.0316227766016838
aa(lp2817
F0.05385164807134508
aF0.022360679774997894
aa(lp2818
F0.0
aF0.014142135623730923
aa(lp2819
F0.09433981132056601
aF0.022360679774997918
aa(lp2820
F0.26570660511172844
aF0.010000000000000009
aa(lp2821
F0.04242640687119277
aF0.014142135623730963
aa(lp2822
F0.04242640687119288
aF0.0447213595499957
aa(lp2823
F2.2247786310271853e-16
aF0.044721359549995704
aa(lp2824
F0.022360679774997894
aF0.022360679774997904
aa(lp2825
F0.040000000000000036
aF0.04242640687119289
aa(lp2826
F0.010000000000000009
aF0.04472135954999573
aa(lp2827
F0.014142135623730963
aF0.0
aa(lp2828
F0.0
aF0.0
aa(lp2829
F0.0
aF0.0
aa(lp2830
F0.0
aF0.0
aa(lp2831
F0.0
aF0.0
aa(lp2832
F0.0
aF0.0
aa(lp2833
F0.0
aF0.0
aa(lp2834
F0.0
aF0.0
aa(lp2835
F0.0
aF0.014142135623730807
aa(lp2836
F0.0
aF0.0
aa(lp2837
F2.7755575615628914e-17
aF0.0
aa(lp2838
F0.014142135623730944
aF0.010000000000000009
aa(lp2839
F0.010000000000000009
aF0.0
aa(lp2840
F0.010000000000000009
aF0.014142135623730952
aa(lp2841
F0.0
aF0.014142135623730952
aa(lp2842
F0.010000000000000009
aF0.0
aa(lp2843
F0.0
aF0.0
aa(lp2844
F0.0
aF0.0
aa(lp2845
F0.0
aF0.0
aa(lp2846
F0.0
aF0.0
aa(lp2847
F0.0
aF0.0
aa(lp2848
F0.0
aF0.0
aa(lp2849
F0.0
aF0.0
aa(lp2850
F0.0
aF0.0
aa(lp2851
F0.0
aF0.0
aa(lp2852
F0.009999999999999787
aF0.0
aa(lp2853
F0.009999999999999898
aF0.0
aa(lp2854
F0.010000000000000009
aF0.0
aa(lp2855
F0.014142135623730963
aF0.014142135623730963
aa(lp2856
F0.04242640687119289
aF0.04123105625617653
aa(lp2857
F0.0141421356237311
aF0.028284271247461926
aa(lp2858
F0.010000000000000009
aF0.014142135623730963
aa(lp2859
F0.014142135623730963
aF0.022360679774997918
aa(lp2860
F0.010000000000000009
aF0.0
aa(lp2861
F0.0
aF0.0
aa(lp2862
F0.014142135623730963
aF0.0
aa(lp2863
F0.010000000000000009
aF0.0
aa(lp2864
F0.014142135623730963
aF0.0
aa(lp2865
F0.010000000000000009
aF0.0
aa(lp2866
F0.010000000000000009
aF0.010000000000000009
aa(lp2867
F0.0640312423743286
aF0.010000000000000009
aa(lp2868
F0.022360679774997918
aF0.03162277660168382
aa(lp2869
F0.010000000000000009
aF0.022360679774997918
aa(lp2870
F5.551115123125783e-17
aF0.022360679774997866
aa(lp2871
F0.014142135623730923
aF0.010000000000000009
aa(lp2872
F0.010000000000000009
aF0.022360679774997918
aa(lp2873
F0.014142135623730963
aF0.014142135623730963
aa(lp2874
F0.010000000000000009
aF0.019999999999999962
aa(lp2875
F0.022360679774997918
aF0.04242640687119287
aa(lp2876
F0.020000000000000018
aF0.014142135623730944
aa(lp2877
F0.010000000000000009
aF0.014142135623730963
aa(lp2878
F0.1403566884761819
aF0.04472135954999582
aa(lp2879
F0.31048349392520064
aF0.11180339887498944
aa(lp2880
F0.031622776601683715
aF0.05830951894845306
aa(lp2881
F0.0608276253029822
aF0.04123105625617653
aa(lp2882
F0.010000000000000009
aF0.03162277660168382
aa(lp2883
F0.24041630560342608
aF0.020000000000000018
aa(lp2884
F0.03162277660168387
aF0.08485281374238575
aa(lp2885
F0.014142135623730952
aF0.02236067977499791
aa(lp2886
F0.009999999999999995
aF0.022360679774997918
aa(lp2887
F0.07810249675906655
aF0.04999999999999999
aa(lp2888
F0.04472135954999579
aF0.036055512754639925
aa(lp2889
F0.014142135623730963
aF0.028284271247461926
aa(lp2890
F0.0
aF0.0
aa(lp2891
F0.010000000000000009
aF0.0
aa(lp2892
F0.010000000000000009
aF0.0
aa(lp2893
F0.0
aF0.0
aa(lp2894
F0.0
aF0.0
aa(lp2895
F0.0
aF0.0
aa(lp2896
F0.0
aF0.0
aa(lp2897
F0.0
aF0.0
aa(lp2898
F0.009999999999999787
aF0.0
aa(lp2899
F0.009999999999999787
aF0.010000000000000009
aa(lp2900
F0.014142135623731003
aF0.014142135623730963
aa(lp2901
F0.014142135623730807
aF0.014142135623730963
aa(lp2902
F0.019999999999999796
aF0.020000000000000018
aa(lp2903
F0.014142135623730944
aF0.01999999999999999
aa(lp2904
F0.010000000000000009
aF0.022360679774997918
aa(lp2905
F0.009999999999999981
aF0.014142135623730944
aa(lp2906
F0.010000000000000009
aF0.022360679774997918
aa(lp2907
F2.237726045655905e-16
aF0.022360679774997894
aa(lp2908
F0.010000000000000009
aF0.030000000000000027
aa(lp2909
F2.7755575615628914e-17
aF0.014142135623730963
aa(lp2910
F0.010000000000000023
aF0.014142135623730952
aa(lp2911
F0.07615773105863924
aF0.028284271247461915
aa(lp2912
F0.014142135623730958
aF0.040000000000000036
aa(lp2913
F0.06000000000000005
aF0.08062257748298546
aa(lp2914
F2.7755575615628914e-17
aF0.014142135623730944
aa(lp2915
F0.010000000000000009
aF0.014142135623730963
aa(lp2916
F0.010000000000000009
aF0.01999999999999999
aa(lp2917
F2.7755575615628914e-17
aF0.044721359549995836
aa(lp2918
F0.014142135623730944
aF0.022360679774997866
aa(lp2919
F0.039999999999999925
aF0.08485281374238567
aa(lp2920
F0.010000000000000009
aF0.020000000000000018
aa(lp2921
F0.050990195135927896
aF0.07615773105863916
aa(lp2922
F2.220446049250313e-16
aF0.0
aa(lp2923
F0.010000000000000009
aF0.0
aa(lp2924
F0.0
aF0.0
aa(lp2925
F0.014142135623730963
aF0.0
aa(lp2926
F0.010000000000000009
aF0.0
aa(lp2927
F0.0
aF0.010000000000000009
aa(lp2928
F0.0
aF0.0
aa(lp2929
F0.010000000000000009
aF0.0
aa(lp2930
F0.010000000000000231
aF0.0
aa(lp2931
F0.019999999999999962
aF0.022360679774997866
aa(lp2932
F5.551115123125783e-17
aF0.010000000000000009
aa(lp2933
F0.0
aF0.010000000000000009
aa(lp2934
F5.551115123125783e-17
aF0.010000000000000009
aa(lp2935
F0.010000000000000009
aF0.010000000000000009
aa(lp2936
F5.551115123125783e-17
aF0.014142135623730963
aa(lp2937
F0.009999999999999953
aF0.010000000000000009
aa(lp2938
F0.014142135623730963
aF0.014142135623730944
aa(lp2939
F0.014142135623730982
aF0.010000000000000009
aa(lp2940
F0.0
aF0.020000000000000018
aa(lp2941
F0.05385164807134502
aF0.050990195135927854
aa(lp2942
F0.010000000000000009
aF0.022360679774997918
aa(lp2943
F0.01999999999999999
aF0.028284271247461905
aa(lp2944
F0.022360679774997873
aF0.022360679774997866
aa(lp2945
F0.010000000000000009
aF0.010000000000000009
aa(lp2946
F0.040000000000000036
aF0.050990195135927896
aa(lp2947
F0.014142135623730963
aF0.022360679774997918
aa(lp2948
F0.010000000000000009
aF0.031622776601683715
aa(lp2949
F0.041231056256176644
aF0.03162277660168382
aa(lp2950
F0.019999999999999907
aF0.08246211251235318
aa(lp2951
F0.010000000000000009
aF0.0
aa(lp2952
F0.010000000000000009
aF0.0
aa(lp2953
F0.010000000000000009
aF0.0
aa(lp2954
F0.010000000000000009
aF0.0
aa(lp2955
F0.010000000000000009
aF0.0
aa(lp2956
F0.010000000000000009
aF0.0
aa(lp2957
F0.014142135623730963
aF0.0
aa(lp2958
F0.010000000000000009
aF0.0
aa(lp2959
F0.0
aF0.0
aa(lp2960
F0.0721110255092801
aF0.009999999999999787
aa(lp2961
F0.0
aF0.0
aa(lp2962
F0.0
aF0.0
aa(lp2963
F0.0
aF0.0
aa(lp2964
F0.0
aF0.0
aa(lp2965
F0.009999999999999953
aF0.0
aa(lp2966
F0.0
aF0.0
aa(lp2967
F0.0
aF0.0
aa(lp2968
F0.02236067977499778
aF0.05830951894845305
aa(lp2969
F0.014142135623730944
aF0.028284271247461905
aa(lp2970
F0.010000000000000009
aF0.014142135623730963
aa(lp2971
F0.010000000000000009
aF0.022360679774997904
aa(lp2972
F2.220446049250313e-16
aF0.03605551275463991
aa(lp2973
F0.010000000000000009
aF0.050000000000000024
aa(lp2974
F0.019999999999999962
aF0.028284271247461888
aa(lp2975
F0.010000000000000009
aF0.03162277660168361
aa(lp2976
F0.010000000000000009
aF0.014142135623730963
aa(lp2977
F0.05099019513592791
aF0.028284271247461926
aa(lp2978
F0.010000000000000231
aF0.030000000000000027
aa(lp2979
F0.014142135623730963
aF0.014142135623730963
aa(lp2980
F0.010000000000000009
aF0.020000000000000018
aa(lp2981
F0.010000000000000009
aF0.06708203932499375
aa(lp2982
F0.010000000000000009
aF0.022360679774997918
aa(lp2983
F0.0
aF0.014142135623730963
aa(lp2984
F0.014142135623730963
aF0.022360679774997918
aa(lp2985
F0.009999999999999898
aF0.022360679774997817
aa(lp2986
F0.0
aF0.0
aa(lp2987
F0.0
aF0.0
aa(lp2988
F0.0
aF0.0
aa(lp2989
F0.010000000000000009
aF0.0
aa(lp2990
F0.0
aF0.0
aa(lp2991
F0.010000000000000009
aF0.0
aa(lp2992
F0.0
aF0.0
aa(lp2993
F0.0
aF0.0
aa(lp2994
F0.009999999999999787
aF0.010000000000000009
aa(lp2995
F0.03162277660168375
aF0.014142135623730963
aa(lp2996
F0.009999999999999787
aF0.05
aa(lp2997
F0.009999999999999995
aF0.022360679774997894
aa(lp2998
F2.220446049250313e-16
aF0.010000000000000009
aa(lp2999
F0.04123105625617665
aF0.014142135623730963
aa(lp3000
F0.0
aF0.014142135623730963
aa(lp3001
F0.010000000000000009
aF0.022360679774997918
aa(lp3002
F0.010000000000000009
aF0.022360679774997918
aa(lp3003
F0.0
aF0.014142135623730963
aa(lp3004
F0.010000000000000009
aF0.014142135623730963
aa(lp3005
F0.010000000000000009
aF0.022360679774997918
aa(lp3006
F0.0
aF0.022360679774997918
aa(lp3007
F0.01000000000000012
aF0.014142135623730885
aa(lp3008
F0.0
aF0.014142135623730963
aa(lp3009
F0.0
aF0.014142135623730963
aa(lp3010
F0.33541019662496857
aF0.06403124237432838
aa(lp3011
F0.3623534186398687
aF0.06403124237432847
aa(lp3012
F0.010000000000000009
aF0.028284271247461846
aa(lp3013
F2.220446049250313e-16
aF0.022360679774997717
aa(lp3014
F1.1102230246251565e-16
aF0.022360679774997817
aa(lp3015
F0.0
aF0.020000000000000018
aa(lp3016
F2.220446049250313e-16
aF0.06708203932499365
aa(lp3017
F0.0
aF0.014142135623730963
aa(lp3018
F0.0
aF0.028284271247461926
aa(lp3019
F0.0
aF0.014142135623730963
aa(lp3020
F0.0
aF0.014142135623730963
aa(lp3021
F0.009999999999999898
aF0.014142135623730963
aa(lp3022
F0.010000000000000009
aF0.022360679774997918
aa(lp3023
F0.020000000000000018
aF0.05830951894845296
aa(lp3024
F0.009999999999999953
aF0.019999999999999796
aa(lp3025
F0.01414213562373112
aF0.020000000000000018
aa(lp3026
F0.022360679774997717
aF0.06403124237432847
aa(lp3027
F0.0
aF0.010000000000000009
aa(lp3028
F0.010000000000000009
aF0.0
aa(lp3029
F0.014142135623730963
aF0.0
aa(lp3030
F0.0
aF0.0
aa(lp3031
F0.010000000000000009
aF0.0
aa(lp3032
F0.0
aF0.0
aa(lp3033
F0.010000000000000009
aF0.0
aa(lp3034
F0.014142135623730963
aF0.0
aa(lp3035
F0.009999999999999787
aF0.0
aa(lp3036
F0.0
aF0.0
aa(lp3037
F5.551115123125783e-17
aF0.030000000000000027
aa(lp3038
F0.010000000000000009
aF0.0
aa(lp3039
F0.0
aF0.0
aa(lp3040
F0.0
aF0.0
aa(lp3041
F0.010000000000000009
aF0.0
aa(lp3042
F0.0
aF0.0
aa(lp3043
F0.15000000000000008
aF0.04472135954999583
aa(lp3044
F0.13453624047073706
aF0.03162277660168382
aa(lp3045
F0.022360679774997713
aF0.022360679774997894
aa(lp3046
F0.009999999999999995
aF0.014142135623730963
aa(lp3047
F0.009999999999999995
aF0.022360679774997894
aa(lp3048
F0.009999999999999995
aF0.014142135623730963
aa(lp3049
F2.7755575615628914e-17
aF0.009999999999999981
aa(lp3050
F0.0
aF0.0316227766016838
aa(lp3051
F2.7755575615628914e-17
aF0.014142135623730944
aa(lp3052
F0.036055512754640126
aF0.022360679774997918
aa(lp3053
F0.009999999999999898
aF0.022360679774997817
aa(lp3054
F0.010000000000000009
aF0.022360679774997918
aa(lp3055
F0.010000000000000009
aF0.020000000000000018
aa(lp3056
F0.014142135623730885
aF0.040000000000000036
aa(lp3057
F0.009999999999999898
aF0.010000000000000009
aa(lp3058
F0.0
aF0.020000000000000018
aa(lp3059
F0.014142135623730963
aF0.014142135623730963
aa(lp3060
F0.010000000000000009
aF0.0
aa(lp3061
F0.0
aF0.0
aa(lp3062
F0.014142135623730963
aF0.0
aa(lp3063
F0.014142135623730963
aF0.0
aa(lp3064
F2.220446049250313e-16
aF0.0
aa(lp3065
F0.010000000000000009
aF0.0
aa(lp3066
F0.010000000000000009
aF0.0
aa(lp3067
F0.022360679774997817
aF0.0
aa(lp3068
F0.010000000000000009
aF0.030000000000000027
aa(lp3069
F0.010000000000000009
aF0.019999999999999962
aa(lp3070
F0.009999999999999953
aF0.010000000000000009
aa(lp3071
F0.010000000000000009
aF0.022360679774997918
aa(lp3072
F0.010000000000000009
aF0.010000000000000009
aa(lp3073
F0.010000000000000009
aF0.02
aa(lp3074
F0.010000000000000002
aF0.014142135623730958
aa(lp3075
F0.0
aF0.020000000000000018
aa(lp3076
F0.014142135623730807
aF0.010000000000000009
aa(lp3077
F0.014142135623730963
aF0.0
aa(lp3078
F0.010000000000000009
aF0.0
aa(lp3079
F0.0
aF0.0
aa(lp3080
F0.0
aF0.0
aa(lp3081
F0.010000000000000009
aF0.0
aa(lp3082
F0.0
aF0.0
aa(lp3083
F0.014142135623730963
aF0.0
aa(lp3084
F0.010000000000000009
aF0.0
aa(lp3085
F0.07280109889280503
aF0.010000000000000009
aa(lp3086
F0.022360679774997817
aF0.010000000000000009
aa(lp3087
F0.009999999999999953
aF0.010000000000000009
aa(lp3088
F0.010000000000000009
aF0.010000000000000009
aa(lp3089
F0.0
aF0.010000000000000009
aa(lp3090
F0.010000000000000009
aF0.009999999999999953
aa(lp3091
F0.010000000000000009
aF0.0
aa(lp3092
F0.010000000000000009
aF0.014142135623730963
aa(lp3093
F0.010000000000000009
aF0.010000000000000009
aa(lp3094
F0.010000000000000009
aF0.0
aa(lp3095
F0.0
aF0.0
aa(lp3096
F5.551115123125783e-17
aF0.010000000000000009
aa(lp3097
F0.010000000000000023
aF0.009999999999999995
aa(lp3098
F0.010000000000000009
aF0.010000000000000009
aa(lp3099
F0.0
aF0.010000000000000009
aa(lp3100
F0.0
aF0.0
aa(lp3101
F1.3877787807814457e-17
aF0.014142135623730963
aa(lp3102
F0.010000000000000009
aF0.0
aa(lp3103
F0.0
aF0.0
aa(lp3104
F0.0
aF0.0
aa(lp3105
F0.0
aF0.0
aa(lp3106
F0.0
aF0.0
aa(lp3107
F0.0
aF0.0
aa(lp3108
F0.0
aF0.0
aa(lp3109
F0.0
aF0.0
aa(lp3110
F0.009999999999999787
aF0.0
aa(lp3111
F0.0
aF0.010000000000000009
aa(lp3112
F0.0
aF0.0
aa(lp3113
F0.0
aF0.0
aa(lp3114
F0.0
aF0.0
aa(lp3115
F0.0
aF0.0
aa(lp3116
F0.0
aF0.0
aa(lp3117
F0.0
aF0.0
aa(lp3118
F0.0
aF0.0
aa(lp3119
F0.028284271247461926
aF0.030000000000000006
aa(lp3120
F0.014142135623730963
aF0.0
aa(lp3121
F0.0
aF0.0
aa(lp3122
F0.010000000000000009
aF0.0
aa(lp3123
F2.220446049250313e-16
aF0.0
aa(lp3124
F0.0
aF0.0
aa(lp3125
F0.0
aF0.0
aa(lp3126
F0.0
aF0.0
aa(lp3127
F0.0
aF0.0
aa(lp3128
F0.0
aF0.0
aa(lp3129
F0.0
aF0.0
aa(lp3130
F0.0
aF0.0
aa(lp3131
F0.0
aF0.0
aa(lp3132
F0.0
aF0.0
aa(lp3133
F0.0
aF0.0
aa(lp3134
F0.0
aF0.0
aa(lp3135
F0.0
aF0.0
aa(lp3136
F0.010000000000000009
aF0.0
aa(lp3137
F0.0
aF0.0
aa(lp3138
F0.0
aF0.0
aa(lp3139
F0.0
aF0.0
aa(lp3140
F0.010000000000000009
aF0.0
aa(lp3141
F0.0
aF0.0
aa(lp3142
F0.0
aF0.0
aa(lp3143
F0.01414213562373112
aF0.0
aa(lp3144
F0.18384776310850234
aF0.10440306508910555
aa(lp3145
F0.03162277660168375
aF0.009999999999999898
aa(lp3146
F0.0
aF0.0
aa(lp3147
F0.022360679774997894
aF0.0
aa(lp3148
F0.010000000000000009
aF0.010000000000000009
aa(lp3149
F0.010000000000000009
aF0.014142135623730958
aa(lp3150
F0.0
aF0.01
aa(lp3151
F0.0
aF0.014142135623730956
aa(lp3152
F0.0
aF0.009999999999999998
aa(lp3153
F0.0
aF0.010000000000000009
aa(lp3154
F0.0
aF0.0
aa(lp3155
F0.0
aF0.009999999999999995
aa(lp3156
F0.0
aF0.010000000000000009
aa(lp3157
F0.029999999999999985
aF0.03162277660168377
aa(lp3158
F0.009999999999999953
aF0.010000000000000009
aa(lp3159
F0.010000000000000231
aF0.022360679774997918
aa(lp3160
F0.0
aF0.020000000000000018
aa(lp3161
F0.02236067977499809
aF0.031622776601683715
aa(lp3162
F0.0
aF0.03162277660168382
aa(lp3163
F0.010000000000000009
aF0.014142135623730963
aa(lp3164
F0.010000000000000009
aF0.020000000000000018
aa(lp3165
F0.014142135623730885
aF0.022360679774997918
aa(lp3166
F0.010000000000000009
aF0.014142135623730963
aa(lp3167
F0.0
aF0.022360679774997918
aa(lp3168
F0.0
aF0.014142135623730963
aa(lp3169
F0.01000000000000012
aF0.014142135623730727
aa(lp3170
F0.010000000000000009
aF0.03162277660168382
aa(lp3171
F0.010000000000000009
aF0.014142135623730963
aa(lp3172
F0.0
aF0.014142135623730963
aa(lp3173
F0.35777087639996646
aF0.019999999999999907
aa(lp3174
F0.32649655434629027
aF0.03162277660168382
aa(lp3175
F0.010000000000000009
aF0.036055512754639835
aa(lp3176
F0.010000000000000009
aF0.014142135623730963
aa(lp3177
F0.0
aF0.022360679774997918
aa(lp3178
F0.010000000000000009
aF0.022360679774997918
aa(lp3179
F0.014142135623731041
aF0.022360679774997918
aa(lp3180
F0.010000000000000009
aF0.014142135623730963
aa(lp3181
F0.010000000000000009
aF0.022360679774997918
aa(lp3182
F0.01000000000000012
aF0.014142135623730885
aa(lp3183
F0.014142135623730963
aF0.022360679774997918
aa(lp3184
F0.010000000000000009
aF0.014142135623730963
aa(lp3185
F0.010000000000000009
aF0.022360679774997918
aa(lp3186
F0.010000000000000009
aF0.014142135623730963
aa(lp3187
F1.1102230246251565e-16
aF0.014142135623730963
aa(lp3188
F2.220446049250313e-16
aF0.022360679774997817
aa(lp3189
F0.0
aF0.014142135623730963
aa(lp3190
F1.1102230246251565e-16
aF0.036055512754639835
aa(lp3191
F0.010000000000000009
aF0.010000000000000009
aa(lp3192
F2.220446049250313e-16
aF0.036055512754639925
aa(lp3193
F0.014142135623730952
aF0.028284271247461915
aa(lp3194
F0.010000000000000009
aF0.022360679774997918
aa(lp3195
F0.009999999999999981
aF0.022360679774997897
aa(lp3196
F1.3877787807814457e-17
aF0.0223606797749979
aa(lp3197
F0.010000000000000009
aF0.010000000000000009
aa(lp3198
F0.010000000000000009
aF0.0
aa(lp3199
F0.010000000000000009
aF0.010000000000000009
aa(lp3200
F0.0
aF0.0
aa(lp3201
F0.0
aF0.0
aa(lp3202
F0.0
aF0.0
aa(lp3203
F0.0
aF0.0
aa(lp3204
F0.0
aF0.0
aa(lp3205
F0.0
aF0.0
aa(lp3206
F0.0
aF0.0
aa(lp3207
F0.0
aF0.0
aa(lp3208
F0.0
aF0.0
aa(lp3209
F0.010000000000000009
aF0.0
aa(lp3210
F0.0
aF0.0
aa(lp3211
F0.009999999999999995
aF0.009999999999999995
aa(lp3212
F0.010000000000000009
aF0.010000000000000009
aa(lp3213
F0.010000000000000009
aF0.009999999999999995
aa(lp3214
F0.0
aF0.0
aa(lp3215
F1.3877787807814457e-17
aF0.009999999999999995
aa(lp3216
F0.0
aF0.010000000000000009
aa(lp3217
F0.0
aF0.0
aa(lp3218
F0.0
aF0.0
aa(lp3219
F0.0
aF0.0
aa(lp3220
F0.0
aF0.0
aa(lp3221
F0.0
aF0.0
aa(lp3222
F0.0
aF0.0
aa(lp3223
F0.0
aF0.0
aa(lp3224
F0.009999999999999787
aF0.0
aa(lp3225
F0.044721359549995836
aF0.010000000000000009
aa(lp3226
F0.060827625302982136
aF0.031622776601683715
aa(lp3227
F0.0
aF0.014142135623730958
aa(lp3228
F0.01414213562373088
aF0.020000000000000004
aa(lp3229
F6.938893903907228e-18
aF0.02236067977499791
aa(lp3230
F0.02236067977499784
aF0.02828427124746184
aa(lp3231
F1.1102230246251565e-16
aF0.014142135623730885
aa(lp3232
F0.04123105625617659
aF0.053851648071345036
aa(lp3233
F2.7755575615628914e-17
aF0.014142135623730963
aa(lp3234
F0.0
aF0.014142135623730963
aa(lp3235
F0.044721359549995635
aF0.03605551275463977
aa(lp3236
F0.03162277660168375
aF0.010000000000000009
aa(lp3237
F0.07810249675906654
aF0.014142135623730963
aa(lp3238
F0.010000000000000009
aF0.0
aa(lp3239
F0.0
aF0.0
aa(lp3240
F0.010000000000000009
aF0.0
aa(lp3241
F0.0
aF0.0
aa(lp3242
F0.0
aF0.0
aa(lp3243
F0.0
aF0.0
aa(lp3244
F0.0
aF0.0
aa(lp3245
F0.022360679774997918
aF0.022360679774997918
aa(lp3246
F0.04123105625617675
aF0.07615773105863904
aa(lp3247
F0.014142135623730885
aF0.014142135623730963
aa(lp3248
F0.014142135623730963
aF0.028284271247461926
aa(lp3249
F0.01000000000000012
aF0.014142135623730885
aa(lp3250
F0.014142135623730963
aF0.028284271247461926
aa(lp3251
F0.03162277660168375
aF0.049999999999999975
aa(lp3252
F1.1102230246251565e-16
aF0.014142135623730963
aa(lp3253
F0.049999999999999954
aF0.036055512754639835
aa(lp3254
F0.010000000000000009
aF0.022360679774997918
aa(lp3255
F0.06324555320336765
aF0.07000000000000006
aa(lp3256
F0.009999999999999953
aF0.014142135623730885
aa(lp3257
F0.031622776601683715
aF0.04123105625617664
aa(lp3258
F1.1188630228279524e-16
aF0.014142135623730958
aa(lp3259
F0.030000000000000027
aF0.029999999999999916
aa(lp3260
F0.019999999999999907
aF0.014142135623730963
aa(lp3261
F0.06403124237432851
aF0.040000000000000036
aa(lp3262
F0.022360679774997894
aF0.014142135623730963
aa(lp3263
F0.014142135623730923
aF0.010000000000000009
aa(lp3264
F0.010000000000000231
aF0.03605551275463986
aa(lp3265
F0.020000000000000018
aF0.014142135623730727
aa(lp3266
F0.010000000000000009
aF0.010000000000000009
aa(lp3267
F1.1102230246251565e-16
aF0.022360679774997866
aa(lp3268
F0.1442220510185594
aF0.030000000000000027
aa(lp3269
F0.014142135623730982
aF0.04123105625617643
aa(lp3270
F0.010000000000000009
aF0.0360555127546399
aa(lp3271
F0.010000000000000009
aF0.020000000000000018
aa(lp3272
F0.014142135623730963
aF0.014142135623730963
aa(lp3273
F0.1431782106327635
aF0.09433981132056612
aa(lp3274
F0.014142135623730963
aF0.020000000000000018
aa(lp3275
F0.0
aF0.03162277660168382
aa(lp3276
F0.014142135623730963
aF0.014142135623730963
aa(lp3277
F0.2570992026436488
aF0.039999999999999925
aa(lp3278
F0.17029386365926416
aF0.0
aa(lp3279
F0.05830951894845299
aF0.11180339887498952
aa(lp3280
F0.21377558326431936
aF0.030000000000000027
aa(lp3281
F0.11045361017187248
aF0.041231056256176644
aa(lp3282
F0.014142135623730992
aF0.03
aa(lp3283
F0.010000000000000009
aF0.0316227766016838
aa(lp3284
F0.009999999999999995
aF0.022360679774997894
aa(lp3285
F0.010000000000000009
aF0.10440306508910549
aa(lp3286
F5.551115123125783e-17
aF0.022360679774997918
aa(lp3287
F0.010000000000000009
aF0.019999999999999962
aa(lp3288
F0.0
aF0.020000000000000018
aa(lp3289
F5.551115123125783e-17
aF0.03162277660168382
aa(lp3290
F0.014142135623731003
aF0.009999999999999953
aa(lp3291
F5.551115123125783e-17
aF0.020000000000000018
aa(lp3292
F0.0
aF0.014142135623730963
aa(lp3293
F0.010000000000000009
aF0.014142135623730963
aa(lp3294
F0.010000000000000009
aF0.022360679774997918
aa(lp3295
F0.022360679774997918
aF0.020000000000000018
aa(lp3296
F0.014142135623730807
aF0.019999999999999796
aa(lp3297
F0.030000000000000027
aF0.09433981132056593
aa(lp3298
F0.009999999999999787
aF0.022360679774997817
aa(lp3299
F0.014142135623730963
aF0.0
aa(lp3300
F0.0
aF0.0
aa.