(lp0
(lp1
F0.010000000000000002
aF0.04123105625617659
aa(lp2
F0.022360679774997894
aF0.21999999999999997
aa(lp3
F0.1044030650891055
aF0.37443290453698114
aa(lp4
F0.03162277660168379
aF0.30016662039607267
aa(lp5
F0.01
aF0.21377558326431953
aa(lp6
F0.01
aF0.03999999999999998
aa(lp7
F0.07280109889280519
aF0.6280127387243034
aa(lp8
F0.020000000000000004
aF0.1341640786499873
aa(lp9
F0.009999999999999995
aF0.022360679774997918
aa(lp10
F0.009999999999999995
aF0.014142135623730963
aa(lp11
F0.009999999999999995
aF0.036055512754639925
aa(lp12
F0.10295630140987
aF0.425440947723653
aa(lp13
F0.09219544457292887
aF0.3534119409414458
aa(lp14
F0.09219544457292887
aF0.48041648597857256
aa(lp15
F0.010000000000000009
aF0.15297058540778355
aa(lp16
F0.0
aF0.02
aa(lp17
F0.1004987562112089
aF0.39217343102255153
aa(lp18
F0.2080865204668481
aF0.6328506932918696
aa(lp19
F0.07211102550927978
aF1.02
aa(lp20
F0.05830951894845301
aF0.680294054067798
aa(lp21
F0.09
aF0.10440306508910559
aa(lp22
F0.10770329614269007
aF0.45453272709454046
aa(lp23
F0.022360679774997897
aF0.6040695324215583
aa(lp24
F0.1140175425099138
aF0.09486832980505146
aa(lp25
F0.053851648071345036
aF0.009999999999999981
aa(lp26
F0.03162277660168379
aF0.16763054614240203
aa(lp27
F0.022360679774997894
aF0.22803508501982758
aa(lp28
F0.0
aF0.014142135623730963
aa(lp29
F0.0
aF0.041231056256176644
aa(lp30
F0.02
aF0.22847319317591722
aa(lp31
F0.01
aF0.036055512754639904
aa(lp32
F0.022360679774997897
aF0.37013511046643494
aa(lp33
F0.08944271909999159
aF0.36400549446402586
aa(lp34
F0.0223606797749979
aF0.20248456731316586
aa(lp35
F0.03162277660168379
aF0.38327535793473594
aa(lp36
F0.1063014581273465
aF0.13453624047073717
aa(lp37
F0.019999999999999997
aF0.12041594578792283
aa(lp38
F0.0
aF0.08602325267042632
aa(lp39
F0.0
aF0.050990195135927854
aa(lp40
F0.009999999999999998
aF0.07810249675906658
aa(lp41
F0.009999999999999998
aF0.03999999999999998
aa(lp42
F0.0
aF0.010000000000000009
aa(lp43
F0.053851648071345036
aF0.16278820596099697
aa(lp44
F0.0
aF0.030000000000000027
aa(lp45
F0.0
aF0.03162277660168382
aa(lp46
F0.022360679774997897
aF0.0
aa(lp47
F0.009999999999999995
aF0.020000000000000018
aa(lp48
F0.010000000000000009
aF0.08062257748298551
aa(lp49
F0.009999999999999995
aF0.1077032961426901
aa(lp50
F0.0
aF0.022360679774997904
aa.