(lp0
(lp1
F0.05830951894845301
aF0.8154140052758476
aa(lp2
F0.009999999999999998
aF0.19104973174542794
aa(lp3
F0.014142135623730947
aF0.19723082923316013
aa(lp4
F0.009999999999999995
aF0.022360679774997866
aa(lp5
F0.01
aF0.022360679774997918
aa(lp6
F0.16031219541881397
aF0.5008991914547277
aa(lp7
F0.009999999999999998
aF0.028284271247461926
aa(lp8
F0.0360555127546399
aF0.24166091947189144
aa(lp9
F0.0670820393249937
aF0.24166091947189142
aa(lp10
F0.009999999999999995
aF0.31575306807693887
aa(lp11
F0.1655294535724685
aF0.2765863337187866
aa(lp12
F0.01
aF0.49999999999999994
aa(lp13
F0.053851648071345036
aF0.2906888370749727
aa(lp14
F0.010000000000000009
aF0.0316227766016838
aa(lp15
F0.14142135623730953
aF0.3733630940518895
aa(lp16
F0.02
aF0.0632455532033676
aa(lp17
F0.05099019513592785
aF0.19723082923316024
aa(lp18
F0.0
aF0.1886796226411321
aa(lp19
F0.0
aF0.010000000000000009
aa(lp20
F0.01
aF0.009999999999999995
aa(lp21
F0.0223606797749979
aF0.20223748416156692
aa(lp22
F0.022360679774997894
aF0.09486832980505142
aa(lp23
F0.0
aF0.053851648071344994
aa(lp24
F0.019999999999999997
aF0.44011362169330775
aa(lp25
F0.022360679774997894
aF0.702353187506115
aa(lp26
F0.03162277660168379
aF0.34539832078341093
aa(lp27
F0.0
aF0.04123105625617659
aa(lp28
F0.009999999999999998
aF0.010000000000000009
aa(lp29
F0.019999999999999997
aF0.3753664875824692
aa(lp30
F0.10295630140987
aF0.29681644159311665
aa(lp31
F0.014142135623730949
aF0.08544003745317538
aa(lp32
F0.0
aF0.0
aa(lp33
F0.01
aF0.21213203435596445
aa(lp34
F0.014142135623730947
aF0.041231056256176644
aa(lp35
F0.0
aF0.14764823060233392
aa(lp36
F0.010000000000000002
aF0.08944271909999162
aa(lp37
F0.019999999999999997
aF0.170293863659264
aa(lp38
F0.0360555127546399
aF0.3860051813123756
aa(lp39
F0.014142135623730947
aF0.05099019513592784
aa(lp40
F0.009999999999999995
aF0.3324154027718933
aa(lp41
F0.0806225774829855
aF0.04123105625617661
aa(lp42
F0.022360679774997897
aF0.2906888370749726
aa(lp43
F0.010000000000000009
aF0.73824115301167
aa(lp44
F0.010000000000000009
aF0.022360679774997918
aa(lp45
F0.12041594578792296
aF0.38832975677895193
aa(lp46
F0.009999999999999995
aF0.030000000000000027
aa(lp47
F0.028284271247461905
aF0.3560898762952971
aa(lp48
F0.014142135623730945
aF0.26
aa(lp49
F0.0447213595499958
aF0.09219544457292896
aa(lp50
F0.02
aF0.06403124237432851
aa(lp51
F0.0
aF0.0316227766016838
aa(lp52
F0.0
aF0.11401754250991389
aa(lp53
F0.014142135623730952
aF0.22472205054244226
aa(lp54
F0.049999999999999996
aF0.5115662224971466
aa(lp55
F0.07211102550927978
aF0.6109828148156051
aa(lp56
F0.0
aF0.009999999999999898
aa(lp57
F0.16970562748477142
aF0.3008321791298265
aa(lp58
F0.010000000000000002
aF0.1004987562112089
aa(lp59
F0.07
aF0.14142135623730953
aa(lp60
F0.02
aF0.2505992817228334
aa(lp61
F0.16155494421403513
aF1.0121264743103997
aa(lp62
F0.009999999999999998
aF0.15000000000000008
aa(lp63
F0.0
aF0.050000000000000044
aa(lp64
F0.014142135623730949
aF0.7316419889536139
aa(lp65
F0.0
aF0.44011362169330775
aa(lp66
F0.03
aF0.33060550509633063
aa(lp67
F0.14866068747318506
aF0.27459060435491955
aa(lp68
F0.07071067811865475
aF0.3860051813123757
aa(lp69
F0.009999999999999995
aF0.1
aa(lp70
F0.019999999999999997
aF0.5077400909914441
aa(lp71
F0.0670820393249937
aF0.5099019513592785
aa(lp72
F0.0360555127546399
aF0.7910120100226038
aa(lp73
F0.0
aF0.12727922061357866
aa(lp74
F0.0
aF0.06708203932499372
aa(lp75
F0.0
aF0.04472135954999581
aa(lp76
F0.022360679774997897
aF0.8584287972802405
aa(lp77
F0.020000000000000004
aF0.028284271247461926
aa(lp78
F0.009999999999999995
aF0.0640312423743285
aa(lp79
F0.0
aF0.08602325267042617
aa(lp80
F0.010000000000000002
aF0.07211102550927981
aa(lp81
F0.0
aF0.022360679774997918
aa(lp82
F0.0
aF0.022360679774997894
aa(lp83
F0.02236067977499789
aF0.4143669871020132
aa(lp84
F0.03
aF0.3306055050963308
aa(lp85
F0.07071067811865474
aF0.15132745950421556
aa(lp86
F0.020000000000000004
aF0.2640075756488818
aa(lp87
F0.0223606797749979
aF0.07810249675906657
aa(lp88
F0.0
aF0.022360679774997894
aa(lp89
F0.13152946437965907
aF0.30083217912982646
aa(lp90
F0.020000000000000004
aF0.5333854141237834
aa(lp91
F0.009999999999999995
aF0.4808326112068523
aa(lp92
F0.0
aF0.0223606797749979
aa(lp93
F0.010000000000000009
aF0.014142135623730958
aa(lp94
F0.0
aF0.042426406871192875
aa(lp95
F0.0
aF0.009999999999999995
aa(lp96
F0.08544003745317531
aF0.5824946351684279
aa(lp97
F0.010000000000000002
aF0.36796738985948196
aa(lp98
F0.02
aF0.1140175425099137
aa(lp99
F0.1118033988749895
aF0.2624880949681337
aa(lp100
F0.014142135623730949
aF0.022360679774997894
aa(lp101
F0.0360555127546399
aF0.14422205101855964
aa(lp102
F0.13601470508735444
aF0.5154609587543949
aa(lp103
F0.014142135623730952
aF0.2256102834535696
aa(lp104
F0.014142135623730949
aF0.638200595424354
aa(lp105
F0.07071067811865475
aF0.34655446902326914
aa(lp106
F0.009999999999999995
aF0.03162277660168382
aa(lp107
F0.01
aF0.022360679774997918
aa(lp108
F0.01
aF0.2024845673131659
aa(lp109
F0.009999999999999995
aF0.17088007490635065
aa(lp110
F0.02
aF0.10198039027185571
aa(lp111
F0.0670820393249937
aF0.5414794548272353
aa(lp112
F0.07071067811865475
aF0.23021728866442676
aa(lp113
F0.014142135623730963
aF0.022360679774997713
aa(lp114
F0.009999999999999995
aF0.26627053911388693
aa(lp115
F0.0223606797749979
aF0.34409301068170506
aa(lp116
F0.009999999999999995
aF0.04999999999999993
aa(lp117
F0.06
aF0.09999999999999998
aa(lp118
F0.014142135623730947
aF0.014142135623730963
aa(lp119
F0.10816653826391968
aF0.25079872407968906
aa(lp120
F0.053851648071345036
aF0.32202484376209245
aa(lp121
F0.05
aF0.5277309920783504
aa(lp122
F0.0721110255092798
aF0.1499999999999999
aa(lp123
F0.022360679774997894
aF0.360138862107382
aa(lp124
F0.0447213595499958
aF0.18973665961010278
aa(lp125
F0.11661903789690602
aF0.7892401408950257
aa(lp126
F0.03
aF0.3847076812334269
aa(lp127
F0.009999999999999995
aF0.1802775637731994
aa(lp128
F0.01
aF0.130384048104053
aa(lp129
F0.0
aF0.11704699910719635
aa(lp130
F0.053851648071345036
aF0.16278820596099713
aa(lp131
F0.028284271247461905
aF0.29732137494637007
aa(lp132
F0.0
aF0.060827625302982254
aa(lp133
F0.07810249675906654
aF0.4738143096192854
aa(lp134
F0.022360679774997894
aF0.6824954212300621
aa(lp135
F0.03162277660168379
aF0.24166091947189142
aa(lp136
F0.01
aF0.05830951894845304
aa(lp137
F0.022360679774997894
aF0.3820994634908559
aa(lp138
F0.009999999999999998
aF0.5124451190127582
aa(lp139
F0.014142135623730949
aF0.014142135623730963
aa(lp140
F0.0
aF0.020000000000000018
aa(lp141
F0.009999999999999995
aF0.020000000000000018
aa(lp142
F0.0
aF0.041231056256176644
aa(lp143
F0.03605551275463989
aF0.2433105012119288
aa(lp144
F0.010000000000000009
aF0.1655294535724684
aa(lp145
F0.03162277660168379
aF0.6236184731067546
aa(lp146
F0.0282842712474619
aF0.5110772935672254
aa(lp147
F0.014142135623730949
aF0.09219544457292872
aa(lp148
F0.009999999999999995
aF0.05385164807134509
aa(lp149
F0.028284271247461898
aF0.21540659228538006
aa(lp150
F0.009999999999999995
aF0.020000000000000018
aa(lp151
F0.04999999999999999
aF0.1216552506059644
aa(lp152
F0.010000000000000009
aF0.014142135623730956
aa(lp153
F0.020000000000000004
aF0.24186773244895649
aa(lp154
F0.03
aF0.7666159403508382
aa(lp155
F0.0
aF0.4242640687119285
aa(lp156
F0.0412310562561766
aF0.12083045973594572
aa(lp157
F0.06403124237432849
aF0.2507987240796892
aa(lp158
F0.04472135954999579
aF0.0943398113205661
aa(lp159
F0.01
aF0.18439088914585783
aa(lp160
F0.022360679774997894
aF0.05999999999999994
aa(lp161
F0.04
aF0.18357559750685812
aa(lp162
F0.01
aF0.03162277660168382
aa(lp163
F0.014142135623730947
aF0.206155281280883
aa(lp164
F0.014142135623730949
aF0.3342154993413682
aa(lp165
F0.17804493814764857
aF0.25495097567963926
aa(lp166
F0.014142135623730945
aF0.2158703314492291
aa(lp167
F0.0223606797749979
aF0.040000000000000036
aa(lp168
F0.019999999999999997
aF0.6506919393998977
aa(lp169
F0.07071067811865475
aF0.4243819034784589
aa(lp170
F0.009999999999999995
aF0.014142135623730963
aa(lp171
F0.0
aF0.036055512754639925
aa(lp172
F0.0
aF0.028284271247461888
aa(lp173
F0.10816653826391967
aF0.24999999999999997
aa(lp174
F0.028284271247461894
aF0.09486832980505139
aa(lp175
F0.0
aF0.0316227766016838
aa(lp176
F0.022360679774997897
aF0.21023796041628637
aa(lp177
F0.0
aF0.04242640687119289
aa(lp178
F0.0
aF0.08062257748298547
aa(lp179
F0.028284271247461898
aF0.46065171225124085
aa(lp180
F0.05099019513592785
aF0.35
aa(lp181
F0.09219544457292887
aF0.3801315561749643
aa(lp182
F0.010000000000000009
aF0.07615773105863916
aa(lp183
F0.022360679774997897
aF0.16643316977093245
aa(lp184
F0.01
aF0.028284271247461915
aa(lp185
F0.009999999999999995
aF0.02236067977499791
aa(lp186
F0.01
aF0.3935733730830886
aa(lp187
F0.044721359549995794
aF0.3354101966249684
aa(lp188
F0.14317821063276354
aF0.5032891812864647
aa(lp189
F0.0
aF0.0948683298050514
aa(lp190
F0.01
aF0.019999999999999997
aa(lp191
F0.009999999999999995
aF0.04472135954999581
aa(lp192
F0.014142135623730949
aF0.5108815909777921
aa(lp193
F0.009999999999999998
aF0.44721359549995787
aa(lp194
F0.0
aF0.036055512754639925
aa(lp195
F0.07071067811865477
aF0.11180339887498947
aa(lp196
F0.0565685424949238
aF0.0781024967590666
aa(lp197
F0.1726267650163207
aF0.4709564735726647
aa(lp198
F0.06403124237432849
aF0.510098029794274
aa(lp199
F0.014142135623730949
aF0.010000000000000009
aa(lp200
F0.0
aF0.010000000000000009
aa(lp201
F0.03
aF0.05000000000000001
aa(lp202
F0.0
aF0.0
aa(lp203
F0.18439088914585774
aF0.13601470508735453
aa(lp204
F0.02
aF0.32649655434629016
aa(lp205
F0.03162277660168379
aF0.38832975677895193
aa(lp206
F0.0223606797749979
aF0.29410882339705485
aa(lp207
F0.01999999999999999
aF0.022360679774997918
aa(lp208
F0.03
aF0.22135943621178653
aa(lp209
F0.03162277660168379
aF0.19849433241279202
aa(lp210
F0.022360679774997897
aF0.17204650534085264
aa(lp211
F0.0
aF0.09219544457292889
aa(lp212
F0.010000000000000009
aF0.009999999999999995
aa(lp213
F0.009999999999999995
aF0.014142135623730963
aa(lp214
F0.009999999999999995
aF0.08602325267042632
aa(lp215
F0.06
aF1.6692812824685959
aa(lp216
F0.009999999999999995
aF0.09055385138137402
aa(lp217
F0.009999999999999998
aF0.15811388300841903
aa(lp218
F0.009999999999999995
aF0.058309518948453015
aa(lp219
F0.0360555127546399
aF0.05830951894845287
aa(lp220
F0.01
aF0.44598206241955524
aa(lp221
F0.01
aF0.010000000000000009
aa(lp222
F0.09219544457292889
aF0.510098029794274
aa(lp223
F0.014142135623730945
aF0.4909175083453431
aa(lp224
F0.014142135623730949
aF0.02236067977499791
aa(lp225
F0.010000000000000002
aF0.022360679774997904
aa(lp226
F0.0
aF0.014142135623730796
aa(lp227
F0.0
aF0.07071067811865478
aa(lp228
F0.0360555127546399
aF0.6200000000000001
aa(lp229
F0.014142135623730949
aF0.24738633753705963
aa(lp230
F0.010000000000000002
aF0.24698178070456936
aa(lp231
F0.009999999999999995
aF0.23345235059857497
aa(lp232
F0.009999999999999995
aF0.4045985664828782
aa(lp233
F0.022360679774997897
aF0.3935733730830886
aa(lp234
F0.010000000000000002
aF0.04242640687119289
aa(lp235
F0.009999999999999995
aF0.06403124237432854
aa(lp236
F0.01
aF0.010000000000000009
aa(lp237
F0.01
aF0.17117242768623683
aa(lp238
F0.009999999999999995
aF0.0316227766016838
aa(lp239
F0.014142135623730945
aF0.15132745950421547
aa(lp240
F0.0360555127546399
aF0.09999999999999988
aa(lp241
F0.022360679774997894
aF0.3101612483854165
aa(lp242
F0.030000000000000006
aF0.44553338819890925
aa(lp243
F0.014142135623730952
aF0.050000000000000024
aa(lp244
F0.014142135623730949
aF0.3883297567789518
aa(lp245
F0.03605551275463989
aF0.11180339887498948
aa(lp246
F0.03162277660168379
aF0.34713109915419565
aa(lp247
F0.014142135623730947
aF0.3512833614050059
aa(lp248
F0.014142135623730945
aF0.022360679774997866
aa(lp249
F0.009999999999999998
aF0.020000000000000018
aa(lp250
F0.05
aF0.23706539182259395
aa(lp251
F0.0
aF0.022360679774997918
aa(lp252
F0.0
aF0.022360679774997918
aa(lp253
F0.009999999999999998
aF0.45177427992306063
aa(lp254
F0.028284271247461905
aF0.07810249675906658
aa(lp255
F0.0282842712474619
aF0.8221921916437788
aa(lp256
F0.022360679774997894
aF0.2716615541441225
aa(lp257
F0.06082762530298219
aF0.25553864678361277
aa(lp258
F0.022360679774997897
aF0.12041594578792292
aa(lp259
F0.08
aF0.9090654541890809
aa(lp260
F0.009999999999999995
aF0.030000000000000027
aa(lp261
F0.02
aF0.1104536101718727
aa(lp262
F0.0
aF0.020000000000000018
aa(lp263
F0.01
aF0.019999999999999796
aa(lp264
F0.0
aF0.040000000000000036
aa(lp265
F0.01
aF0.041231056256176644
aa(lp266
F0.05099019513592785
aF0.2906888370749727
aa(lp267
F0.014142135623730944
aF0.280178514522438
aa(lp268
F0.03
aF0.43081318457076023
aa(lp269
F0.0282842712474619
aF0.40162171256046403
aa(lp270
F0.009999999999999995
aF0.04123105625617664
aa(lp271
F0.014142135623730947
aF0.5032891812864647
aa(lp272
F0.01
aF0.041231056256176644
aa(lp273
F0.01
aF0.020000000000000018
aa(lp274
F0.014142135623730947
aF0.022360679774997866
aa(lp275
F0.009999999999999995
aF0.022360679774997918
aa(lp276
F0.014142135623730947
aF0.020000000000000018
aa(lp277
F0.0
aF0.022360679774997866
aa(lp278
F0.01
aF0.022360679774997918
aa(lp279
F0.014142135623730947
aF0.020000000000000018
aa(lp280
F0.009999999999999995
aF0.014142135623730963
aa(lp281
F0.0
aF0.04123105625617659
aa(lp282
F0.0
aF0.09848857801796114
aa(lp283
F0.02236067977499789
aF0.05099019513592784
aa(lp284
F0.0
aF0.08602325267042629
aa(lp285
F0.014142135623730944
aF0.0728010988928052
aa(lp286
F0.02
aF0.5108815909777921
aa(lp287
F0.0412310562561766
aF0.19235384061671337
aa(lp288
F0.009999999999999995
aF0.022360679774997866
aa(lp289
F0.014142135623730945
aF0.16278820596099697
aa(lp290
F0.014142135623730945
aF0.07810249675906658
aa(lp291
F0.014142135623730949
aF0.030000000000000027
aa(lp292
F0.010000000000000002
aF0.010000000000000009
aa(lp293
F0.0360555127546399
aF0.7971198153351855
aa(lp294
F0.022360679774997897
aF0.19416487838947605
aa(lp295
F0.009999999999999995
aF0.030000000000000027
aa(lp296
F0.0
aF0.019999999999999907
aa(lp297
F0.014142135623730949
aF0.36796738985948196
aa(lp298
F0.049999999999999996
aF0.26000000000000006
aa(lp299
F0.028284271247461905
aF0.17029386365926408
aa(lp300
F0.0223606797749979
aF0.3001666203960727
aa(lp301
F0.01
aF0.040000000000000036
aa(lp302
F0.009999999999999998
aF0.11704699910719628
aa(lp303
F0.010000000000000009
aF0.391152144312159
aa(lp304
F0.05
aF0.35383612025908256
aa(lp305
F0.08246211251235322
aF0.25317977802344327
aa(lp306
F0.0
aF0.1802775637731994
aa(lp307
F0.0
aF0.0316227766016838
aa(lp308
F0.014142135623730949
aF0.022360679774997918
aa(lp309
F0.010000000000000002
aF0.6676076692189806
aa(lp310
F0.0608276253029822
aF0.022360679774997918
aa(lp311
F0.01
aF0.2109502310972899
aa(lp312
F0.022360679774997894
aF0.3106444913401814
aa(lp313
F0.009999999999999998
aF0.4341658669218481
aa(lp314
F0.0
aF0.11313708498984766
aa(lp315
F0.04
aF0.233452350598575
aa(lp316
F0.02
aF0.12806248474865706
aa(lp317
F0.0316227766016838
aF0.16278820596099713
aa(lp318
F0.028284271247461894
aF0.24041630560342608
aa(lp319
F0.03
aF0.2906888370749727
aa(lp320
F0.009999999999999995
aF0.16492422502470636
aa(lp321
F0.009999999999999998
aF0.014142135623730963
aa(lp322
F0.014142135623730945
aF0.08944271909999162
aa(lp323
F0.014142135623730947
aF0.050000000000000044
aa(lp324
F0.022360679774997897
aF0.13453624047073717
aa(lp325
F0.014142135623730944
aF0.2640075756488817
aa(lp326
F0.009999999999999995
aF0.16155494421403524
aa(lp327
F0.03605551275463989
aF0.43600458713183277
aa(lp328
F0.022360679774997894
aF0.08062257748298549
aa(lp329
F0.02
aF0.38483762809787725
aa(lp330
F0.019999999999999997
aF0.7102112361825881
aa(lp331
F0.009999999999999995
aF0.014142135623730956
aa(lp332
F0.0
aF0.022360679774997914
aa(lp333
F0.009999999999999995
aF0.036055512754639786
aa(lp334
F0.014142135623730958
aF0.1392838827718413
aa(lp335
F0.041231056256176596
aF0.11661903789690593
aa(lp336
F0.022360679774997904
aF0.24186773244895646
aa(lp337
F0.009999999999999995
aF0.03162277660168382
aa(lp338
F0.009999999999999995
aF0.19646882704388496
aa(lp339
F0.010000000000000002
aF0.028284271247461926
aa(lp340
F0.0
aF0.028284271247461926
aa(lp341
F0.009999999999999995
aF0.03162277660168382
aa(lp342
F0.014142135623730944
aF0.11313708498984747
aa(lp343
F0.014142135623730952
aF0.3301514803843836
aa(lp344
F0.01
aF0.1979898987322334
aa(lp345
F0.014142135623730952
aF0.14422205101855948
aa(lp346
F0.009999999999999995
aF0.05000000000000003
aa(lp347
F0.022360679774997894
aF0.14
aa(lp348
F0.03162277660168379
aF0.09219544457292891
aa(lp349
F0.01
aF0.470425339453563
aa(lp350
F0.0
aF0.01999999999999999
aa(lp351
F0.041231056256176596
aF0.41629316592997306
aa(lp352
F0.022360679774997894
aF0.07615773105863916
aa(lp353
F0.01999999999999999
aF0.041231056256176644
aa(lp354
F0.03
aF0.23259406699226012
aa(lp355
F0.009999999999999995
aF0.36796738985948196
aa(lp356
F0.01
aF0.04123105625617664
aa(lp357
F0.014142135623730947
aF0.07615773105863904
aa(lp358
F0.014142135623730952
aF0.38600518131237566
aa(lp359
F0.0
aF0.19209372712298556
aa(lp360
F0.07071067811865475
aF0.16124515496597092
aa(lp361
F0.010000000000000009
aF0.042426406871192715
aa(lp362
F0.042426406871192854
aF0.15231546211727817
aa(lp363
F0.044721359549995794
aF0.292745623366089
aa(lp364
F0.022360679774997894
aF0.4263801121065569
aa(lp365
F0.0360555127546399
aF0.26248809496813374
aa(lp366
F0.010000000000000002
aF0.14142135623730942
aa(lp367
F0.009999999999999995
aF0.06324555320336753
aa(lp368
F0.009999999999999995
aF0.10049875621120888
aa(lp369
F0.010000000000000009
aF0.20099751242241787
aa(lp370
F0.03162277660168379
aF0.35846896657869837
aa(lp371
F0.010000000000000002
aF0.10295630140987004
aa(lp372
F0.030000000000000006
aF0.2640075756488817
aa(lp373
F0.009999999999999995
aF0.11401754250991368
aa(lp374
F0.014142135623730944
aF0.041231056256176644
aa(lp375
F0.014142135623730947
aF0.24041630560342614
aa(lp376
F0.014142135623730952
aF0.12529964086141657
aa(lp377
F0.022360679774997894
aF0.09486832980505146
aa(lp378
F0.014142135623730952
aF0.044721359549995836
aa(lp379
F0.014142135623730949
aF0.05999999999999983
aa(lp380
F0.0
aF0.04123105625617653
aa(lp381
F0.0
aF0.07280109889280524
aa(lp382
F0.0412310562561766
aF0.3640054944640259
aa(lp383
F0.022360679774997897
aF0.24186773244895649
aa(lp384
F0.0
aF0.06403124237432851
aa(lp385
F0.0
aF0.04242640687119287
aa(lp386
F0.0
aF0.028284271247461915
aa(lp387
F0.019999999999999997
aF0.2816025568065745
aa(lp388
F0.014142135623730949
aF0.029999999999999916
aa(lp389
F0.0
aF0.1503329637837291
aa(lp390
F0.009999999999999995
aF0.010000000000000009
aa(lp391
F0.014142135623730947
aF0.16492422502470636
aa(lp392
F0.01
aF0.050990195135927854
aa(lp393
F0.009999999999999995
aF0.031622776601683805
aa(lp394
F0.014142135623730947
aF0.09219544457292887
aa(lp395
F0.0
aF0.014142135623730944
aa(lp396
F0.022360679774997894
aF0.42379240200834173
aa(lp397
F0.022360679774997904
aF0.08062257748298551
aa(lp398
F0.014142135623730944
aF0.33015148038438363
aa(lp399
F0.014142135623730949
aF0.22090722034374521
aa(lp400
F0.03162277660168379
aF0.565685424949238
aa.