(lp0
(lp1
F0.06999999999999999
aF0.7963039620647382
aa(lp2
F0.009999999999999995
aF0.17204650534085245
aa(lp3
F0.09433981132056604
aF0.38600518131237554
aa(lp4
F0.03162277660168379
aF0.19697715603592206
aa(lp5
F0.009999999999999995
aF0.18027756377319948
aa(lp6
F0.0
aF0.0608276253029822
aa(lp7
F0.0608276253029822
aF0.7156814934033155
aa(lp8
F0.020000000000000004
aF0.161245154965971
aa(lp9
F0.020000000000000004
aF0.014142135623730958
aa(lp10
F0.009999999999999995
aF0.036055512754639904
aa(lp11
F0.0
aF0.036055512754639904
aa(lp12
F0.010000000000000002
aF0.0412310562561766
aa(lp13
F0.0
aF0.014142135623730963
aa(lp14
F0.0
aF0.0
aa(lp15
F0.22203603311174516
aF0.8431488599292535
aa(lp16
F0.022360679774997897
aF0.20808652046684806
aa(lp17
F0.07211102550927978
aF0.29999999999999993
aa(lp18
F0.1019803902718557
aF0.30083217912982646
aa(lp19
F0.009999999999999998
aF0.022360679774997817
aa(lp20
F0.014142135623730952
aF0.261725046566048
aa(lp21
F0.009999999999999995
aF0.04
aa(lp22
F0.21377558326431953
aF0.6432728814430155
aa(lp23
F0.0282842712474619
aF0.22472205054244238
aa(lp24
F0.010000000000000009
aF0.019999999999999962
aa(lp25
F0.04999999999999999
aF0.1486606874731851
aa(lp26
F0.04242640687119285
aF0.13892443989449801
aa(lp27
F0.014142135623730949
aF0.022360679774997918
aa(lp28
F0.022360679774997894
aF0.044721359549995836
aa(lp29
F0.03
aF0.13892443989449801
aa(lp30
F0.014142135623730952
aF0.261725046566048
aa(lp31
F0.04242640687119285
aF0.22803508501982758
aa(lp32
F0.03
aF0.014142135623730952
aa(lp33
F0.0360555127546399
aF0.09
aa(lp34
F0.010000000000000009
aF0.022360679774997918
aa(lp35
F0.1216552506059644
aF0.2549509756796392
aa(lp36
F0.01
aF0.3982461550347975
aa(lp37
F0.019999999999999997
aF0.3423448553724739
aa(lp38
F0.18
aF0.25317977802344327
aa(lp39
F0.1216552506059644
aF0.21931712199461303
aa(lp40
F0.022360679774997897
aF0.06708203932499354
aa(lp41
F0.014142135623730949
aF0.036055512754639925
aa(lp42
F0.031622776601683784
aF0.022360679774997918
aa(lp43
F0.0282842712474619
aF0.028284271247461905
aa(lp44
F0.014142135623730949
aF0.014142135623730963
aa(lp45
F0.02236067977499789
aF0.009999999999999787
aa(lp46
F0.014142135623730949
aF0.03
aa(lp47
F0.0
aF0.022360679774997904
aa(lp48
F0.06324555320336758
aF0.14035668847618213
aa(lp49
F0.009999999999999995
aF0.2325940669922601
aa(lp50
F0.044721359549995794
aF0.3920459156782531
aa.