(lp0
(lp1
F0.03
aF1.0447966309287182
aa(lp2
F0.010000000000000009
aF0.14317821063276356
aa(lp3
F0.0
aF0.04472135954999581
aa(lp4
F0.009999999999999995
aF0.014142135623730952
aa(lp5
F0.0282842712474619
aF0.6184658438426491
aa(lp6
F0.01
aF0.1341640786499873
aa(lp7
F0.07280109889280519
aF0.37483329627982626
aa(lp8
F0.050990195135927854
aF0.4257933771208754
aa(lp9
F0.0
aF0.020000000000000018
aa(lp10
F0.08602325267042626
aF0.3687817782917155
aa(lp11
F0.17088007490635063
aF0.3106444913401814
aa(lp12
F0.014142135623730949
aF0.1627882059609971
aa(lp13
F0.0
aF0.031622776601683715
aa(lp14
F0.05
aF0.5522680508593629
aa(lp15
F0.009999999999999995
aF0.130384048104053
aa(lp16
F0.009999999999999995
aF0.022360679774997918
aa(lp17
F0.009999999999999995
aF0.014142135623730963
aa(lp18
F0.08246211251235322
aF0.21999999999999997
aa(lp19
F0.041231056256176596
aF0.523545604508337
aa(lp20
F0.15652475842498528
aF0.7186793443532381
aa(lp21
F0.15652475842498528
aF0.5532630477449222
aa(lp22
F0.01
aF0.14764823060233412
aa(lp23
F0.014142135623730947
aF0.05830951894845287
aa(lp24
F0.014142135623730947
aF0.036055512754639904
aa(lp25
F0.010000000000000009
aF0.1526433752247374
aa(lp26
F0.03605551275463988
aF0.05099019513592784
aa(lp27
F0.01
aF0.11999999999999988
aa(lp28
F0.009999999999999998
aF0.030000000000000027
aa(lp29
F0.009999999999999995
aF0.02999999999999997
aa(lp30
F0.022360679774997897
aF0.09055385138137419
aa(lp31
F0.0
aF0.0824621125123532
aa(lp32
F0.009999999999999995
aF0.04123105625617662
aa(lp33
F0.0
aF0.16552945357246862
aa(lp34
F0.01
aF0.3687817782917156
aa(lp35
F0.028284271247461905
aF0.25079872407968906
aa(lp36
F0.009999999999999995
aF0.022360679774997904
aa(lp37
F0.009999999999999998
aF0.10000000000000002
aa(lp38
F0.014142135623730947
aF0.022360679774997717
aa(lp39
F0.0
aF0.03162277660168382
aa(lp40
F0.009999999999999995
aF0.03162277660168382
aa(lp41
F0.12369316876852982
aF0.30149626863362666
aa(lp42
F0.0
aF0.022360679774997918
aa(lp43
F0.0
aF0.040000000000000036
aa(lp44
F0.0
aF0.022360679774997918
aa(lp45
F0.0
aF0.020000000000000018
aa(lp46
F0.0
aF0.2545584412271572
aa(lp47
F0.07810249675906654
aF0.3080584360149873
aa(lp48
F0.05656854249492381
aF0.5360037313302959
aa(lp49
F0.009999999999999995
aF0.053851648071345064
aa(lp50
F0.009999999999999995
aF0.48373546489791297
aa(lp51
F0.0
aF0.020000000000000018
aa(lp52
F0.01
aF0.12165525060596441
aa(lp53
F0.0
aF0.049999999999999864
aa(lp54
F0.041231056256176596
aF0.3712142238654116
aa(lp55
F0.0806225774829855
aF0.30528675044947495
aa(lp56
F0.009999999999999995
aF0.03605551275463992
aa(lp57
F0.010000000000000009
aF0.5124451190127584
aa(lp58
F0.04472135954999579
aF0.20124611797498113
aa(lp59
F0.0
aF0.22022715545545243
aa(lp60
F0.0
aF0.028284271247461888
aa(lp61
F0.0
aF0.20248456731316578
aa(lp62
F0.1131370849898476
aF0.29410882339705485
aa(lp63
F0.0
aF0.03605551275463991
aa(lp64
F0.01
aF0.022360679774997918
aa(lp65
F0.0316227766016838
aF0.4016217125604641
aa(lp66
F0.05099019513592785
aF0.21470910553583902
aa(lp67
F0.07071067811865475
aF0.23021728866442676
aa(lp68
F0.0
aF0.31112698372208086
aa(lp69
F0.0
aF0.031622776601683715
aa(lp70
F0.08602325267042628
aF0.5348831648126533
aa(lp71
F0.014142135623730945
aF0.09433981132056612
aa(lp72
F0.02
aF0.23259406699226012
aa(lp73
F0.010000000000000002
aF0.1216552506059644
aa(lp74
F0.0806225774829855
aF0.4976946855251722
aa(lp75
F0.060827625302982205
aF0.5108815909777921
aa(lp76
F0.06082762530298219
aF0.32893768406797047
aa(lp77
F0.022360679774997894
aF0.14764823060233398
aa(lp78
F0.0282842712474619
aF0.12806248474865695
aa(lp79
F0.0
aF0.010000000000000009
aa(lp80
F0.0
aF0.03
aa(lp81
F0.01
aF0.014142135623730952
aa(lp82
F0.03162277660168379
aF0.15264337522473756
aa(lp83
F0.019999999999999997
aF0.13341664064126335
aa(lp84
F0.0806225774829855
aF1.2037026210821342
aa(lp85
F0.009999999999999998
aF0.14317821063276343
aa(lp86
F0.0223606797749979
aF0.1897366596101028
aa(lp87
F0.09055385138137416
aF0.09433981132056596
aa(lp88
F0.020000000000000004
aF0.21540659228538012
aa(lp89
F0.0670820393249937
aF0.19209372712298553
aa(lp90
F0.0806225774829855
aF1.5469324484281788
aa(lp91
F0.01
aF0.12
aa(lp92
F0.014142135623730947
aF0.5930430001273094
aa(lp93
F0.06082762530298219
aF0.21213203435596423
aa(lp94
F0.009999999999999995
aF0.23194827009486402
aa(lp95
F0.0
aF0.020000000000000004
aa(lp96
F0.010000000000000002
aF0.2731300056749534
aa(lp97
F0.0
aF0.03162277660168382
aa(lp98
F0.03162277660168379
aF0.46872166581031854
aa(lp99
F0.0
aF0.13416407864998747
aa(lp100
F0.0
aF0.02828427124746177
aa(lp101
F0.0
aF0.21400934559032703
aa(lp102
F0.0412310562561766
aF0.053851648071345036
aa(lp103
F0.009999999999999998
aF0.2941088233970549
aa(lp104
F0.022360679774997894
aF0.10816653826391978
aa(lp105
F0.01
aF0.25079872407968906
aa(lp106
F0.014142135623730947
aF0.13038404810405307
aa(lp107
F0.009999999999999995
aF0.2720294101747089
aa(lp108
F0.014142135623730947
aF0.06324555320336754
aa(lp109
F0.010000000000000002
aF0.3067572330035594
aa(lp110
F0.010000000000000002
aF0.06403124237432851
aa(lp111
F0.009999999999999995
aF0.5500909015790028
aa(lp112
F0.03
aF0.19026297590440464
aa(lp113
F0.019999999999999997
aF0.6842514157822401
aa(lp114
F0.028284271247461894
aF0.40459856648287823
aa(lp115
F0.010000000000000002
aF0.020000000000000018
aa(lp116
F0.0
aF0.009999999999999953
aa(lp117
F0.08062257748298549
aF0.05
aa(lp118
F0.028284271247461898
aF0.34885527085024814
aa(lp119
F0.0
aF0.08602325267042635
aa(lp120
F0.04472135954999579
aF0.19313207915827954
aa(lp121
F0.0360555127546399
aF0.12806248474865686
aa(lp122
F0.009999999999999995
aF0.040000000000000036
aa(lp123
F0.014142135623730949
aF0.019999999999999796
aa(lp124
F0.053851648071345036
aF0.2501999200639361
aa(lp125
F0.014142135623730963
aF0.04472135954999581
aa(lp126
F0.01999999999999999
aF0.05000000000000001
aa(lp127
F0.014142135623730952
aF0.170293863659264
aa(lp128
F0.0640312423743285
aF0.13892443989449796
aa(lp129
F0.04
aF0.18681541692269404
aa(lp130
F0.009999999999999995
aF0.03605551275463992
aa(lp131
F0.0
aF0.05830951894845304
aa(lp132
F0.014142135623730947
aF0.028284271247461915
aa(lp133
F0.0
aF0.022360679774997914
aa(lp134
F0.009999999999999995
aF0.21260291625469308
aa(lp135
F0.058309518948453
aF0.3138470965295043
aa(lp136
F0.02236067977499789
aF0.041231056256176644
aa(lp137
F0.014142135623730949
aF0.020000000000000018
aa(lp138
F0.009999999999999995
aF0.010000000000000009
aa(lp139
F0.03162277660168379
aF0.3721558813185679
aa(lp140
F0.019999999999999997
aF0.020000000000000018
aa(lp141
F0.019999999999999997
aF0.12041594578792283
aa(lp142
F0.009999999999999995
aF0.022360679774997918
aa(lp143
F0.014142135623730945
aF0.028284271247461926
aa(lp144
F0.009999999999999998
aF0.014142135623730963
aa(lp145
F0.03605551275463988
aF0.06082762530298203
aa(lp146
F0.03162277660168379
aF0.08000000000000007
aa(lp147
F0.0
aF0.2308679276123039
aa(lp148
F0.07071067811865475
aF0.5303772242470449
aa(lp149
F0.009999999999999995
aF0.2789265136196271
aa(lp150
F0.12041594578792296
aF0.6281719509815763
aa(lp151
F0.02236067977499789
aF0.3361547262794322
aa(lp152
F0.03162277660168379
aF0.30265491900843106
aa(lp153
F0.01
aF0.10198039027185576
aa(lp154
F0.010000000000000009
aF0.34058772731852804
aa(lp155
F0.0
aF0.5635601121442149
aa(lp156
F0.05
aF0.3676955262170047
aa(lp157
F0.009999999999999998
aF0.354682957019364
aa(lp158
F0.014142135623730945
aF0.028284271247461926
aa(lp159
F0.0
aF0.3785498646149541
aa(lp160
F0.0
aF0.08062257748298551
aa(lp161
F0.009999999999999995
aF0.23345235059857503
aa(lp162
F0.014142135623730949
aF0.04242640687119289
aa(lp163
F0.009999999999999995
aF0.022360679774997866
aa(lp164
F0.05099019513592785
aF0.3298484500494129
aa(lp165
F0.009999999999999995
aF0.044721359549995836
aa(lp166
F0.014142135623730945
aF0.45999999999999996
aa(lp167
F0.0316227766016838
aF0.11180339887498951
aa(lp168
F0.020000000000000004
aF0.022360679774997918
aa(lp169
F0.02
aF0.16124515496597103
aa(lp170
F0.02
aF0.5142956348249516
aa(lp171
F0.0223606797749979
aF0.11661903789690604
aa(lp172
F0.01
aF0.11661903789690595
aa(lp173
F0.010000000000000009
aF0.21023796041628642
aa(lp174
F0.010000000000000009
aF0.233452350598575
aa(lp175
F0.014142135623730947
aF0.39812058474788764
aa(lp176
F0.010000000000000009
aF0.0412310562561766
aa(lp177
F0.0223606797749979
aF0.1118033988749895
aa(lp178
F0.014142135623730945
aF0.7359347797189639
aa(lp179
F0.028284271247461894
aF0.10440306508910555
aa(lp180
F0.014142135623730947
aF0.26248809496813374
aa(lp181
F0.014142135623730947
aF0.45221676218380047
aa(lp182
F0.0
aF0.022360679774997918
aa(lp183
F0.0
aF0.022360679774997918
aa(lp184
F0.028284271247461905
aF0.292745623366089
aa(lp185
F0.009999999999999998
aF0.0632455532033676
aa(lp186
F0.009999999999999995
aF0.028284271247461905
aa(lp187
F0.014142135623730963
aF0.053851648071345085
aa(lp188
F0.03162277660168379
aF0.09433981132056607
aa(lp189
F0.1063014581273465
aF0.10770329614269013
aa(lp190
F0.022360679774997894
aF0.3342154993413681
aa(lp191
F0.01
aF0.04999999999999982
aa(lp192
F0.0
aF0.050000000000000044
aa(lp193
F0.0
aF0.041231056256176644
aa(lp194
F0.02
aF0.11180339887498958
aa(lp195
F0.022360679774997897
aF0.12369316876852993
aa(lp196
F0.014142135623730949
aF0.1
aa(lp197
F0.019999999999999997
aF0.5292447448959696
aa(lp198
F0.01
aF0.35846896657869826
aa(lp199
F0.0412310562561766
aF0.24041630560342614
aa(lp200
F0.02
aF0.03605551275463974
aa(lp201
F0.03
aF0.0
aa(lp202
F0.0223606797749979
aF0.16155494421403516
aa(lp203
F0.014142135623730947
aF0.0316227766016838
aa(lp204
F0.010000000000000002
aF0.014142135623730963
aa(lp205
F0.019999999999999997
aF0.30413812651491096
aa(lp206
F0.0
aF0.06708203932499371
aa(lp207
F0.010000000000000002
aF0.12206555615733711
aa(lp208
F0.014142135623730944
aF0.19026297590440444
aa(lp209
F0.05
aF0.1341640786499875
aa(lp210
F0.05099019513592785
aF0.25495097567963926
aa(lp211
F0.1004987562112089
aF0.19646882704388505
aa(lp212
F0.014142135623730949
aF0.014142135623730963
aa(lp213
F0.014142135623730949
aF0.27730849247724093
aa(lp214
F0.0412310562561766
aF0.26019223662515367
aa(lp215
F0.0
aF0.09848857801796114
aa(lp216
F0.0
aF0.7513321502504735
aa(lp217
F0.028284271247461905
aF0.2630589287593181
aa(lp218
F0.019999999999999997
aF0.21931712199461312
aa(lp219
F0.009999999999999995
aF0.028284271247461888
aa(lp220
F0.009999999999999995
aF0.261725046566048
aa(lp221
F0.0282842712474619
aF0.0894427190999916
aa(lp222
F0.014142135623730949
aF0.13152946437965918
aa(lp223
F0.049999999999999996
aF0.7043436661176135
aa(lp224
F0.07
aF0.24839484696748437
aa(lp225
F0.022360679774997894
aF0.12727922061357855
aa(lp226
F0.0360555127546399
aF0.10770329614269018
aa(lp227
F0.0223606797749979
aF0.48301138702933283
aa(lp228
F0.0
aF0.05656854249492381
aa(lp229
F0.0
aF0.03162277660168382
aa(lp230
F0.01999999999999999
aF0.010000000000000009
aa(lp231
F0.04
aF0.33999999999999997
aa(lp232
F0.010000000000000009
aF0.08944271909999157
aa(lp233
F0.01
aF0.28284271247461906
aa(lp234
F0.02
aF0.10295630140986999
aa(lp235
F0.0360555127546399
aF0.3687817782917155
aa(lp236
F0.022360679774997894
aF0.7779460135510691
aa(lp237
F0.0223606797749979
aF0.11401754250991383
aa(lp238
F0.010000000000000009
aF0.022360679774997866
aa(lp239
F0.009999999999999995
aF0.03162277660168382
aa(lp240
F0.022360679774997894
aF0.2209072203437452
aa(lp241
F0.009999999999999998
aF0.304138126514911
aa(lp242
F0.053851648071345036
aF0.23853720883753118
aa(lp243
F0.010000000000000009
aF0.009999999999999981
aa(lp244
F0.014142135623730947
aF0.06708203932499375
aa(lp245
F0.02
aF0.0781024967590664
aa(lp246
F0.01
aF0.028284271247461926
aa(lp247
F0.0
aF0.05830951894845301
aa(lp248
F0.041231056256176596
aF0.15556349186104051
aa(lp249
F0.022360679774997894
aF0.31827660925679097
aa(lp250
F0.022360679774997894
aF0.33615472627943227
aa(lp251
F0.07810249675906654
aF0.06708203932499375
aa(lp252
F0.07810249675906654
aF0.16155494421403502
aa(lp253
F0.05
aF0.2147091055358389
aa(lp254
F0.014142135623730947
aF0.022360679774997918
aa(lp255
F0.022360679774997894
aF0.07280109889280517
aa(lp256
F0.0
aF0.020000000000000018
aa(lp257
F0.0
aF0.304138126514911
aa(lp258
F0.03162277660168379
aF0.8987213138676527
aa(lp259
F0.03162277660168379
aF0.14035668847618202
aa(lp260
F0.014142135623730947
aF0.0608276253029822
aa(lp261
F0.03162277660168379
aF0.25179356624028343
aa(lp262
F0.014142135623730952
aF0.45276925690687087
aa(lp263
F0.014142135623730949
aF0.04242640687119273
aa(lp264
F0.01
aF0.41629316592997306
aa(lp265
F0.0
aF0.384707681233427
aa(lp266
F0.0
aF0.03
aa(lp267
F0.09219544457292887
aF0.47074409183759286
aa(lp268
F0.010000000000000002
aF0.43046486500061776
aa(lp269
F0.042426406871192854
aF0.3423448553724738
aa(lp270
F0.03605551275463988
aF0.21840329667841557
aa(lp271
F0.03162277660168379
aF0.26907248094147423
aa(lp272
F0.022360679774997894
aF0.3858756276314948
aa(lp273
F0.028284271247461894
aF0.13038404810405302
aa(lp274
F0.0
aF0.04242640687119285
aa(lp275
F0.010000000000000009
aF0.05000000000000003
aa(lp276
F0.0
aF0.014142135623730958
aa(lp277
F0.0
aF0.014142135623730958
aa(lp278
F0.009999999999999995
aF0.22022715545545238
aa(lp279
F0.08246211251235322
aF0.2807133769523639
aa(lp280
F0.0
aF0.050990195135927896
aa(lp281
F0.014142135623730945
aF0.04242640687119289
aa(lp282
F0.053851648071345036
aF0.3324154027718932
aa(lp283
F0.08602325267042626
aF0.3036445290137796
aa(lp284
F0.009999999999999998
aF0.6413267497929585
aa(lp285
F0.014142135623730963
aF0.3757658845611186
aa(lp286
F0.022360679774997904
aF0.10630145812734654
aa(lp287
F0.014142135623730944
aF0.014142135623730963
aa(lp288
F0.009999999999999995
aF0.036055512754639904
aa(lp289
F0.009999999999999995
aF0.03605551275463991
aa(lp290
F0.010000000000000002
aF0.014142135623730963
aa(lp291
F0.03
aF0.5824946351684279
aa(lp292
F0.009999999999999998
aF0.12041594578792297
aa(lp293
F0.0
aF0.040000000000000036
aa(lp294
F0.0
aF0.031622776601683715
aa(lp295
F0.0
aF0.06000000000000005
aa(lp296
F0.02
aF0.2580697580112788
aa(lp297
F0.009999999999999995
aF0.022360679774997894
aa(lp298
F0.014142135623730949
aF0.33837848631377254
aa(lp299
F0.05000000000000001
aF0.21633307652783942
aa(lp300
F0.07280109889280519
aF0.2022374841615668
aa(lp301
F0.09486832980505139
aF0.2408318915758459
aa(lp302
F0.022360679774997894
aF0.2817800560721074
aa(lp303
F0.022360679774997894
aF0.2789265136196271
aa(lp304
F0.044721359549995794
aF0.1414213562373094
aa(lp305
F0.009999999999999995
aF0.09219544457292891
aa(lp306
F0.06082762530298219
aF0.14866068747318517
aa(lp307
F0.01
aF0.06000000000000005
aa(lp308
F0.014142135623730947
aF0.050000000000000044
aa(lp309
F0.009999999999999995
aF0.2901723625709382
aa(lp310
F0.06403124237432849
aF0.4070626487409524
aa(lp311
F0.014142135623730945
aF0.014142135623730963
aa(lp312
F0.0
aF0.05000000000000003
aa(lp313
F0.0632455532033676
aF0.20591260281973994
aa(lp314
F0.010000000000000002
aF0.009999999999999995
aa(lp315
F0.009999999999999995
aF0.010000000000000009
aa(lp316
F0.009999999999999995
aF0.010000000000000009
aa(lp317
F0.022360679774997894
aF0.42941821107167777
aa(lp318
F0.05099019513592785
aF0.15999999999999992
aa(lp319
F0.0
aF0.022360679774997894
aa(lp320
F0.060000000000000005
aF0.07071067811865482
aa(lp321
F0.028284271247461905
aF0.09000000000000008
aa(lp322
F0.0
aF0.750066663703967
aa(lp323
F0.022360679774997897
aF0.10630145812734654
aa(lp324
F0.0
aF0.02828427124746176
aa(lp325
F0.0
aF0.028284271247461905
aa(lp326
F0.0
aF0.03605551275463991
aa(lp327
F0.022360679774997897
aF0.014142135623730958
aa(lp328
F0.009999999999999995
aF0.130384048104053
aa(lp329
F0.014142135623730963
aF0.13601470508735447
aa(lp330
F0.010000000000000002
aF0.211896201004171
aa(lp331
F0.01999999999999999
aF0.3400000000000001
aa(lp332
F0.04123105625617661
aF0.10770329614268996
aa(lp333
F0.009999999999999995
aF0.036055512754639904
aa(lp334
F0.014142135623730944
aF0.022360679774997894
aa(lp335
F0.014142135623730949
aF0.014142135623730963
aa(lp336
F0.0
aF0.06708203932499374
aa(lp337
F0.0
aF0.06324555320336764
aa(lp338
F0.0
aF0.13152946437965907
aa(lp339
F0.009999999999999995
aF0.05999999999999994
aa(lp340
F0.030000000000000002
aF0.24515301344262524
aa(lp341
F0.07280109889280517
aF0.10049875621120888
aa(lp342
F0.0412310562561766
aF0.4103656905736639
aa(lp343
F0.01
aF0.46861498055439926
aa(lp344
F0.014142135623730947
aF0.06
aa(lp345
F0.0
aF0.19209372712298542
aa(lp346
F0.03162277660168379
aF0.21095023109728983
aa(lp347
F0.022360679774997894
aF0.07615773105863904
aa(lp348
F0.014142135623730947
aF0.04242640687119289
aa(lp349
F0.01
aF0.022360679774997793
aa(lp350
F0.03162277660168379
aF0.25179356624028343
aa(lp351
F0.03162277660168379
aF0.35355339059327373
aa(lp352
F0.0
aF0.10816653826391975
aa(lp353
F0.009999999999999995
aF0.04
aa(lp354
F0.022360679774997894
aF0.42544094772365304
aa(lp355
F0.0
aF0.16155494421403513
aa(lp356
F0.0
aF0.028284271247461905
aa(lp357
F0.0
aF0.0
aa(lp358
F0.0806225774829855
aF0.27
aa(lp359
F0.010000000000000009
aF0.3312099032335839
aa(lp360
F0.0
aF0.05
aa(lp361
F0.019999999999999997
aF0.08062257748298551
aa(lp362
F0.03605551275463989
aF0.23706539182259392
aa(lp363
F0.01
aF0.022360679774997918
aa(lp364
F0.009999999999999995
aF0.03162277660168377
aa(lp365
F0.0412310562561766
aF0.147648230602334
aa(lp366
F0.019999999999999997
aF0.11401754250991378
aa(lp367
F0.053851648071345036
aF0.3517101079013796
aa(lp368
F0.0
aF0.014142135623730963
aa(lp369
F0.030000000000000006
aF0.14422205101855948
aa(lp370
F0.014142135623730949
aF0.2920616373302048
aa(lp371
F0.028284271247461898
aF0.22022715545545232
aa(lp372
F0.009999999999999995
aF0.039999999999999813
aa(lp373
F0.0
aF0.02236067977499791
aa(lp374
F0.014142135623730947
aF0.04242640687119287
aa(lp375
F0.01
aF0.0223606797749979
aa(lp376
F0.010000000000000009
aF0.6862215385719105
aa(lp377
F0.014142135623730949
aF0.23194827009486402
aa(lp378
F0.05385164807134504
aF0.18384776310850223
aa(lp379
F0.014142135623730944
aF0.022360679774997918
aa(lp380
F0.0
aF0.014142135623730963
aa(lp381
F0.010000000000000009
aF0.022360679774997866
aa(lp382
F0.010000000000000009
aF0.022360679774997918
aa(lp383
F0.010000000000000009
aF0.036055512754639925
aa(lp384
F0.010000000000000009
aF0.028284271247461926
aa(lp385
F0.014142135623730963
aF0.028284271247461926
aa(lp386
F0.03605551275463989
aF0.20880613017821095
aa(lp387
F0.0
aF0.11704699910719613
aa(lp388
F0.014142135623730949
aF0.044721359549995836
aa(lp389
F0.07810249675906654
aF0.6447480127925949
aa(lp390
F0.009999999999999995
aF0.020000000000000018
aa(lp391
F0.014142135623730949
aF0.2469817807045695
aa(lp392
F0.014142135623730947
aF0.13341664064126346
aa(lp393
F0.03
aF0.4904079934095691
aa(lp394
F0.0360555127546399
aF0.04999999999999999
aa(lp395
F0.0
aF0.036055512754639925
aa(lp396
F0.0848528137423857
aF0.8348652585896721
aa(lp397
F0.022360679774997894
aF0.11313708498984766
aa(lp398
F0.03
aF0.1200000000000001
aa(lp399
F0.019999999999999997
aF0.4522167621838005
aa(lp400
F0.009999999999999998
aF0.04472135954999579
aa(lp401
F0.014142135623730949
aF0.06324555320336764
aa(lp402
F0.01
aF0.08062257748298557
aa(lp403
F0.014142135623730947
aF0.036055512754639876
aa(lp404
F0.05
aF0.27202941017470883
aa(lp405
F0.0
aF0.03605551275463992
aa(lp406
F0.020000000000000004
aF0.1264911064067352
aa(lp407
F0.010000000000000002
aF0.022360679774997918
aa(lp408
F0.014142135623730949
aF0.028284271247461888
aa(lp409
F0.014142135623730949
aF0.10440306508910557
aa(lp410
F0.014142135623730949
aF0.12041594578792306
aa(lp411
F0.010000000000000002
aF0.028284271247461926
aa(lp412
F0.014142135623730949
aF0.03605551275463974
aa(lp413
F0.02236067977499789
aF0.7247068372797375
aa(lp414
F0.0223606797749979
aF0.09433981132056606
aa(lp415
F0.01
aF0.07810249675906657
aa(lp416
F0.020000000000000004
aF0.2147091055358389
aa(lp417
F0.020000000000000004
aF0.391152144312159
aa(lp418
F0.03162277660168379
aF0.26476404589747454
aa(lp419
F0.0
aF0.2751363298439521
aa(lp420
F0.02
aF0.37643060449437427
aa(lp421
F0.0
aF0.022360679774997918
aa(lp422
F0.0
aF0.014142135623730963
aa(lp423
F0.022360679774997894
aF0.25298221281347044
aa(lp424
F0.014142135623730947
aF0.10000000000000006
aa(lp425
F0.03
aF0.17464249196572976
aa(lp426
F0.03605551275463989
aF0.31827660925679097
aa(lp427
F0.014142135623730949
aF0.14317821063276354
aa(lp428
F0.039999999999999994
aF0.22561028345356954
aa(lp429
F0.04472135954999579
aF0.14035668847618213
aa(lp430
F0.03162277660168379
aF0.2523885892824792
aa(lp431
F0.04
aF0.18027756377319945
aa(lp432
F0.05
aF0.6574191965557441
aa(lp433
F0.0
aF0.058309518948452904
aa(lp434
F0.009999999999999995
aF0.014142135623730952
aa(lp435
F0.0316227766016838
aF0.16492422502470647
aa(lp436
F0.014142135623730945
aF0.19235384061671346
aa(lp437
F0.07
aF0.38600518131237554
aa(lp438
F0.01999999999999999
aF0.5292447448959696
aa(lp439
F0.0
aF0.022360679774997918
aa(lp440
F0.022360679774997894
aF0.05385164807134509
aa(lp441
F0.019999999999999997
aF0.3984971769034255
aa(lp442
F0.09848857801796104
aF0.39012818406262323
aa(lp443
F0.07
aF0.6957010852370433
aa(lp444
F0.0
aF0.040000000000000036
aa(lp445
F0.06403124237432849
aF0.1360147050873544
aa(lp446
F0.05
aF0.22825424421026644
aa(lp447
F0.04
aF0.05830951894845306
aa(lp448
F0.014142135623730947
aF0.028284271247461905
aa(lp449
F0.0
aF0.036055512754639904
aa(lp450
F0.010000000000000002
aF0.2640075756488817
aa.