(lp0
(lp1
F0.03605551275463989
aF0.03162277660168382
aa(lp2
F0.09219544457292887
aF0.8209750300709516
aa(lp3
F0.1063014581273465
aF0.38288379438153286
aa(lp4
F0.21000000000000002
aF0.283196045170126
aa(lp5
F0.12083045973594572
aF0.3920459156782532
aa(lp6
F0.07280109889280519
aF0.2580697580112788
aa(lp7
F0.014142135623730945
aF0.022360679774997904
aa(lp8
F0.03605551275463988
aF0.4001249804748512
aa(lp9
F0.05099019513592785
aF0.039999999999999813
aa(lp10
F0.04
aF0.031622776601683784
aa(lp11
F0.009999999999999995
aF0.020000000000000018
aa(lp12
F0.18027756377319945
aF0.97082439194738
aa(lp13
F0.0412310562561766
aF0.2433105012119288
aa(lp14
F0.020000000000000004
aF0.014142135623730963
aa(lp15
F0.022360679774997894
aF0.34885527085024814
aa(lp16
F0.12206555615733704
aF0.2154065922853802
aa(lp17
F0.1664331697709324
aF0.6356099432828282
aa(lp18
F0.014142135623730952
aF0.04472135954999581
aa(lp19
F0.18
aF0.39051248379533277
aa(lp20
F0.03
aF0.23769728648009425
aa(lp21
F0.03
aF0.15620499351813313
aa(lp22
F0.009999999999999995
aF0.35468295701936403
aa(lp23
F0.01
aF0.010000000000000009
aa(lp24
F0.009999999999999998
aF0.022360679774997918
aa(lp25
F0.07071067811865475
aF1.1101801655587258
aa(lp26
F0.05
aF0.18973665961010278
aa(lp27
F0.010000000000000002
aF0.014142135623730963
aa(lp28
F0.12806248474865697
aF0.7655716818169281
aa(lp29
F0.1341640786499874
aF0.7025667228100119
aa(lp30
F0.014142135623730947
aF0.022360679774997918
aa(lp31
F0.04472135954999579
aF0.48166378315169184
aa(lp32
F0.010000000000000009
aF0.019999999999999796
aa(lp33
F0.14212670403551894
aF0.9047098982546836
aa(lp34
F0.020000000000000004
aF0.0632455532033676
aa(lp35
F0.05
aF0.3911521443121589
aa(lp36
F0.009999999999999995
aF0.07615773105863916
aa(lp37
F0.11401754250991379
aF0.32249030993194194
aa(lp38
F0.020000000000000004
aF0.014142135623730963
aa(lp39
F0.0
aF0.014142135623730963
aa(lp40
F0.0
aF0.010000000000000009
aa(lp41
F0.010000000000000002
aF0.5738466694161429
aa(lp42
F0.13
aF0.3577708763999663
aa(lp43
F0.11401754250991379
aF0.9436630754670864
aa(lp44
F0.014142135623730945
aF0.028284271247461926
aa(lp45
F0.158113883008419
aF0.028284271247461926
aa(lp46
F0.15811388300841897
aF0.4949747468305833
aa(lp47
F0.014142135623730947
aF0.040000000000000036
aa(lp48
F0.01
aF0.010000000000000009
aa(lp49
F0.0
aF0.031622776601683715
aa(lp50
F0.0
aF0.030000000000000027
aa(lp51
F0.1019803902718557
aF0.20124611797498101
aa(lp52
F0.16278820596099708
aF0.7410802925459562
aa(lp53
F0.0
aF0.022360679774997918
aa(lp54
F0.0
aF0.010000000000000009
aa(lp55
F0.0
aF0.030000000000000027
aa(lp56
F0.014142135623730949
aF0.09219544457292884
aa(lp57
F0.053851648071345036
aF0.33734255586866
aa(lp58
F0.08944271909999159
aF0.93637599285757
aa(lp59
F0.0670820393249937
aF0.22360679774997905
aa(lp60
F0.04472135954999579
aF0.5508175741568165
aa(lp61
F0.010000000000000009
aF0.022360679774997918
aa(lp62
F0.1131370849898476
aF0.8509406559801924
aa(lp63
F0.12083045973594574
aF0.48010415536631207
aa(lp64
F0.15524174696260026
aF0.5315072906367325
aa(lp65
F0.01
aF0.07071067811865477
aa(lp66
F0.07615773105863909
aF0.644980619863884
aa(lp67
F0.020000000000000004
aF0.16401219466856734
aa(lp68
F0.09433981132056604
aF0.5608029957123982
aa(lp69
F0.03605551275463988
aF0.08602325267042635
aa(lp70
F0.17029386365926402
aF0.4220189569201838
aa(lp71
F0.08246211251235322
aF0.28319604517012587
aa(lp72
F0.19104973174542803
aF0.5322593352868507
aa(lp73
F0.13
aF0.4004996878900157
aa(lp74
F0.1
aF1.0427847332982967
aa(lp75
F0.014142135623730949
aF0.022360679774997918
aa(lp76
F0.0447213595499958
aF0.8417244204607586
aa(lp77
F0.014142135623730963
aF0.3101612483854165
aa(lp78
F0.0
aF0.040000000000000036
aa(lp79
F0.009999999999999995
aF0.07
aa(lp80
F0.0316227766016838
aF0.10049875621120893
aa(lp81
F0.0223606797749979
aF0.1499999999999999
aa(lp82
F0.014142135623730952
aF0.3352610922848042
aa(lp83
F0.022360679774997894
aF0.6488451279003334
aa(lp84
F0.019999999999999997
aF0.13928388277184117
aa(lp85
F0.03162277660168379
aF0.24758836806279907
aa(lp86
F0.02
aF0.8417244204607587
aa(lp87
F0.03
aF0.049999999999999954
aa(lp88
F0.05656854249492381
aF1.1335784048754634
aa(lp89
F0.05
aF0.521536192416212
aa(lp90
F0.0806225774829855
aF0.19104973174542794
aa(lp91
F0.0282842712474619
aF0.7043436661176133
aa(lp92
F0.010000000000000002
aF0.3361547262794323
aa(lp93
F0.06
aF0.3801315561749642
aa(lp94
F0.12369316876852982
aF0.7700649323271382
aa(lp95
F0.1216552506059644
aF0.33955853692699295
aa(lp96
F0.03605551275463988
aF0.14560219778561037
aa(lp97
F0.014142135623730947
aF0.07
aa(lp98
F0.10295630140987
aF0.2846049894151541
aa(lp99
F0.0
aF1.0080178569846867
aa(lp100
F0.13
aF0.35128336140500593
aa(lp101
F0.014142135623730949
aF0.014142135623730807
aa(lp102
F0.0
aF0.010000000000000009
aa(lp103
F0.05385164807134504
aF0.5440588203494177
aa(lp104
F0.01999999999999999
aF0.3649657518178932
aa(lp105
F0.014142135623730949
aF0.01999999999999999
aa(lp106
F0.10440306508910549
aF0.5756735185849702
aa(lp107
F0.08544003745317531
aF0.17088007490635054
aa(lp108
F0.10295630140987
aF0.36055512754639896
aa(lp109
F0.0806225774829855
aF0.764198926981712
aa(lp110
F0.03162277660168379
aF0.40049968789001567
aa(lp111
F0.014142135623730949
aF0.04472135954999581
aa(lp112
F0.01999999999999999
aF0.10630145812734654
aa(lp113
F0.1
aF0.5239274758971894
aa(lp114
F0.0223606797749979
aF0.02999999999999997
aa(lp115
F0.019999999999999997
aF0.031622776601683805
aa(lp116
F0.05830951894845301
aF0.194164878389476
aa(lp117
F0.028284271247461905
aF0.08602325267042632
aa(lp118
F0.130384048104053
aF0.19697715603592203
aa(lp119
F0.0223606797749979
aF0.020000000000000018
aa(lp120
F0.022360679774997894
aF0.8947066558375433
aa(lp121
F0.009999999999999995
aF0.022360679774997918
aa(lp122
F0.07071067811865475
aF0.681175454637056
aa(lp123
F0.009999999999999995
aF0.014142135623730963
aa(lp124
F0.020000000000000004
aF0.37643060449437427
aa(lp125
F0.0412310562561766
aF0.6140032573203501
aa(lp126
F0.014142135623730947
aF0.2785677655436824
aa(lp127
F0.05385164807134504
aF0.8668333173107734
aa(lp128
F0.0223606797749979
aF0.3417601498127012
aa(lp129
F0.009999999999999998
aF0.010000000000000009
aa(lp130
F0.0
aF0.014142135623730963
aa(lp131
F0.009999999999999995
aF0.014142135623730963
aa(lp132
F0.009999999999999995
aF0.022360679774997817
aa(lp133
F0.010000000000000002
aF0.014142135623730963
aa(lp134
F0.010000000000000002
aF0.010000000000000009
aa(lp135
F0.0
aF0.014142135623730963
aa(lp136
F0.022360679774997894
aF0.6905070600652827
aa(lp137
F0.009999999999999998
aF0.5063595560468865
aa(lp138
F0.07071067811865475
aF0.9128526715741154
aa(lp139
F0.014142135623730945
aF0.010000000000000009
aa(lp140
F0.009999999999999998
aF0.014142135623730963
aa(lp141
F0.0806225774829855
aF0.2816025568065746
aa(lp142
F0.053851648071345036
aF0.7696752561957543
aa(lp143
F0.0282842712474619
aF0.6400781202322104
aa(lp144
F0.11401754250991379
aF0.30528675044947495
aa(lp145
F0.009999999999999998
aF0.041231056256176644
aa(lp146
F0.009999999999999995
aF0.014142135623730963
aa(lp147
F0.009999999999999995
aF0.014142135623730963
aa(lp148
F0.014142135623730949
aF0.049999999999999954
aa(lp149
F0.0670820393249937
aF0.810246875958186
aa(lp150
F0.03162277660168379
aF0.6067124524847006
aa(lp151
F0.0
aF0.9730878685915265
aa(lp152
F0.0223606797749979
aF0.050000000000000044
aa(lp153
F0.03
aF0.1565247584249854
aa(lp154
F0.010000000000000002
aF0.13038404810405288
aa(lp155
F0.014142135623730949
aF0.04123105625617653
aa(lp156
F0.0
aF0.790253124005214
aa(lp157
F0.09899494936611666
aF1.1047624178980746
aa(lp158
F0.022360679774997897
aF0.378021163428716
aa(lp159
F0.16278820596099708
aF0.212602916254693
aa(lp160
F0.05830951894845301
aF0.29732137494637
aa(lp161
F0.041231056256176596
aF0.35846896657869837
aa(lp162
F0.0
aF0.6774215821775978
aa(lp163
F0.009999999999999995
aF0.7702596964660685
aa(lp164
F0.1341640786499874
aF0.2640075756488816
aa(lp165
F0.009999999999999995
aF0.014142135623730963
aa(lp166
F0.009999999999999995
aF0.014142135623730963
aa(lp167
F0.009999999999999995
aF0.010000000000000009
aa(lp168
F0.009999999999999995
aF0.014142135623730963
aa(lp169
F0.0
aF0.014142135623730963
aa(lp170
F0.0
aF0.022360679774997918
aa(lp171
F0.05656854249492381
aF0.2408318915758459
aa(lp172
F0.05830951894845301
aF0.485077313425396
aa(lp173
F0.0806225774829855
aF0.44777226354476213
aa(lp174
F0.022360679774997894
aF0.8544003745317532
aa(lp175
F0.039999999999999994
aF0.23323807579381198
aa(lp176
F0.009999999999999995
aF0.02236067977499781
aa(lp177
F0.0223606797749979
aF0.3008321791298265
aa(lp178
F0.0282842712474619
aF0.11401754250991376
aa(lp179
F0.04123105625617661
aF0.04000000000000001
aa(lp180
F0.03162277660168379
aF0.30886890422961005
aa(lp181
F0.07280109889280517
aF0.30610455730027947
aa(lp182
F0.010000000000000009
aF0.050000000000000024
aa(lp183
F0.16155494421403513
aF0.7802563681252465
aa(lp184
F0.009999999999999995
aF0.014142135623730952
aa(lp185
F0.0
aF0.04123105625617662
aa(lp186
F0.15297058540778358
aF0.8676404785393546
aa(lp187
F0.049999999999999996
aF0.6303173803727768
aa(lp188
F0.0
aF0.031622776601683784
aa(lp189
F0.08
aF0.5239274758971894
aa(lp190
F0.11045361017187261
aF0.4775981574503821
aa(lp191
F0.014142135623730956
aF0.04472135954999579
aa(lp192
F0.0316227766016838
aF0.188679622641132
aa(lp193
F0.08944271909999159
aF0.604400529450463
aa(lp194
F0.09219544457292889
aF0.6161168720299746
aa(lp195
F0.01
aF0.8036168241145777
aa(lp196
F0.009999999999999995
aF0.0608276253029822
aa(lp197
F0.09433981132056604
aF0.34713109915419565
aa(lp198
F0.07071067811865475
aF0.27459060435491967
aa(lp199
F0.0
aF0.014142135623730963
aa(lp200
F0.009999999999999998
aF0.014142135623730923
aa(lp201
F0.01
aF0.4428317965096906
aa(lp202
F0.014142135623730945
aF1.273184982632139
aa(lp203
F0.009999999999999998
aF0.5467174773134659
aa(lp204
F0.0223606797749979
aF0.24186773244895649
aa(lp205
F0.05830951894845301
aF0.10770329614269007
aa(lp206
F0.022360679774997894
aF0.2969848480983501
aa(lp207
F0.0223606797749979
aF0.020000000000000018
aa(lp208
F0.1902629759044045
aF0.33837848631377265
aa(lp209
F0.014142135623730949
aF0.5322593352868505
aa(lp210
F0.010000000000000002
aF0.0608276253029822
aa(lp211
F0.16155494421403513
aF0.6815423684555494
aa(lp212
F0.08246211251235322
aF0.7792945527847605
aa(lp213
F0.08944271909999159
aF0.2641968962724581
aa(lp214
F0.04472135954999579
aF0.06708203932499375
aa(lp215
F0.1
aF0.33955853692699284
aa(lp216
F0.014142135623730949
aF0.10999999999999999
aa(lp217
F0.15
aF0.05830951894845306
aa(lp218
F0.020000000000000004
aF0.014142135623730885
aa(lp219
F0.05656854249492381
aF0.5024937810560445
aa(lp220
F0.039999999999999994
aF0.6488451279003333
aa(lp221
F0.06324555320336758
aF0.635609943282828
aa(lp222
F0.0
aF0.05385164807134498
aa(lp223
F0.014142135623730949
aF0.3420526275297414
aa(lp224
F0.022360679774997894
aF0.5331041174104737
aa(lp225
F0.1140175425099138
aF0.3623534186398688
aa(lp226
F0.049999999999999996
aF0.6228964600958975
aa(lp227
F0.022360679774997897
aF0.305286750449475
aa(lp228
F0.022360679774997894
aF0.15620499351813305
aa(lp229
F0.022360679774997894
aF0.8061017305526642
aa(lp230
F0.09055385138137416
aF0.37536648758246915
aa(lp231
F0.01
aF0.014142135623730963
aa(lp232
F0.0806225774829855
aF0.6854195795277518
aa(lp233
F0.0223606797749979
aF0.010000000000000009
aa(lp234
F0.07615773105863909
aF0.07280109889280517
aa(lp235
F0.014142135623730947
aF0.08602325267042628
aa(lp236
F0.0
aF0.010000000000000009
aa(lp237
F0.0
aF0.060827625302982254
aa(lp238
F0.10295630140987
aF0.17464249196572973
aa(lp239
F0.14212670403551894
aF0.354682957019364
aa(lp240
F0.0721110255092798
aF0.31064449134018135
aa(lp241
F0.15
aF0.5720139858430036
aa(lp242
F0.17464249196572978
aF0.3176476034853718
aa(lp243
F0.11401754250991379
aF0.6226556030423239
aa(lp244
F0.03
aF0.850881895447306
aa(lp245
F0.044721359549995794
aF0.7694153624668538
aa(lp246
F0.014142135623730949
aF0.01999999999999999
aa(lp247
F0.0
aF0.014142135623730963
aa(lp248
F0.010000000000000002
aF0.0316227766016838
aa(lp249
F0.14866068747318506
aF0.8188406438373709
aa(lp250
F0.009999999999999995
aF0.044721359549995836
aa(lp251
F0.1252996408614167
aF0.7357309290766563
aa(lp252
F0.0412310562561766
aF0.304138126514911
aa(lp253
F0.02
aF0.21023796041628637
aa(lp254
F0.04
aF0.284253408071038
aa(lp255
F0.0360555127546399
aF0.7441102068914254
aa(lp256
F0.05
aF1.0346496991735898
aa(lp257
F0.04242640687119286
aF0.19723082923316027
aa(lp258
F0.022360679774997897
aF0.35510561809129404
aa(lp259
F0.12727922061357855
aF0.291547594742265
aa(lp260
F0.0
aF0.050000000000000044
aa(lp261
F0.05385164807134504
aF0.4504442251822083
aa(lp262
F0.028284271247461894
aF0.2009975124224178
aa(lp263
F0.09
aF0.5531726674375732
aa(lp264
F0.028284271247461905
aF0.6628725367670619
aa(lp265
F0.07071067811865475
aF0.38832975677895204
aa(lp266
F0.028284271247461905
aF0.7446475676452585
aa(lp267
F0.17888543819998318
aF0.291547594742265
aa(lp268
F0.18248287590894657
aF0.15652475842498526
aa(lp269
F0.08602325267042628
aF0.5903388857258176
aa(lp270
F0.009999999999999995
aF0.5946427498927404
aa(lp271
F0.07211102550927978
aF0.25179356624028343
aa(lp272
F0.0
aF0.036055512754639904
aa(lp273
F0.0
aF0.05656854249492381
aa(lp274
F0.0824621125123532
aF0.4891829923454003
aa(lp275
F0.05
aF0.7244998274671982
aa(lp276
F0.08602325267042628
aF0.3801315561749641
aa(lp277
F0.014142135623730945
aF0.13038404810405288
aa(lp278
F0.009999999999999998
aF0.014142135623730958
aa(lp279
F0.009999999999999998
aF0.07810249675906658
aa(lp280
F0.014142135623730945
aF0.028284271247461915
aa(lp281
F0.0
aF0.11401754250991383
aa(lp282
F0.009999999999999995
aF0.1389244398944981
aa(lp283
F0.020000000000000004
aF0.010000000000000009
aa(lp284
F0.053851648071345036
aF0.8697700845625813
aa(lp285
F0.010000000000000009
aF0.020000000000000018
aa(lp286
F0.04242640687119285
aF0.5295280917949491
aa(lp287
F0.1063014581273465
aF0.2163330765278393
aa(lp288
F0.1140175425099138
aF0.6675327707311455
aa(lp289
F0.02828427124746189
aF0.470425339453563
aa(lp290
F0.06082762530298219
aF0.3807886552931955
aa(lp291
F0.060827625302982205
aF0.8590692637965811
aa(lp292
F0.022360679774997894
aF0.4104875150354759
aa(lp293
F0.15556349186104046
aF0.6700746227100383
aa(lp294
F0.044721359549995794
aF0.7011419257183241
aa(lp295
F0.1341640786499874
aF0.4704253394535631
aa(lp296
F0.019999999999999997
aF0.9353608929178086
aa(lp297
F0.010000000000000002
aF0.5445181356024792
aa(lp298
F0.009999999999999995
aF0.014142135623730963
aa(lp299
F0.0360555127546399
aF0.05385164807134505
aa(lp300
F0.09433981132056604
aF0.562227711874824
aa(lp301
F0.009999999999999995
aF0.014142135623730952
aa(lp302
F0.01
aF0.036055512754639904
aa(lp303
F0.147648230602334
aF0.16000000000000003
aa(lp304
F0.05099019513592785
aF0.11180339887498937
aa(lp305
F0.08602325267042628
aF0.6251399843235114
aa(lp306
F0.014142135623730949
aF0.036055512754639925
aa(lp307
F0.009999999999999995
aF0.05656854249492381
aa(lp308
F0.12369316876852982
aF1.0245974819410792
aa(lp309
F0.009999999999999995
aF0.028284271247461926
aa(lp310
F0.009999999999999995
aF0.08062257748298554
aa(lp311
F0.009999999999999995
aF0.0707106781186548
aa(lp312
F0.02
aF0.056568542494923664
aa(lp313
F0.0
aF0.036055512754639904
aa(lp314
F0.04472135954999579
aF0.334215499341368
aa(lp315
F0.07071067811865475
aF0.370540146272978
aa(lp316
F0.014142135623730949
aF0.40012498047485107
aa(lp317
F0.17262676501632068
aF0.27202941017470883
aa(lp318
F0.0670820393249937
aF0.036055512754639925
aa(lp319
F0.03
aF0.31064449134018135
aa(lp320
F0.019999999999999997
aF0.8980534505250787
aa(lp321
F0.1004987562112089
aF0.5412947441089744
aa(lp322
F0.10770329614269009
aF0.4248529157249601
aa(lp323
F0.1392838827718412
aF1.1562439189029277
aa(lp324
F0.04472135954999579
aF0.029999999999999916
aa(lp325
F0.07071067811865475
aF0.5885575587824865
aa(lp326
F0.05099019513592784
aF0.340587727318528
aa(lp327
F0.1392838827718412
aF0.24698178070456944
aa(lp328
F0.014142135623730958
aF0.15264337522473753
aa(lp329
F0.014142135623730945
aF0.022360679774997866
aa(lp330
F0.01
aF0.03162277660168382
aa(lp331
F0.0
aF0.014142135623730963
aa(lp332
F0.10295630140987
aF0.19646882704388494
aa(lp333
F0.07211102550927978
aF0.38600518131237577
aa(lp334
F0.05099019513592784
aF0.9704638066409277
aa(lp335
F0.0
aF0.014142135623730958
aa(lp336
F0.12
aF0.17204650534085247
aa(lp337
F0.009999999999999995
aF0.8481155581640982
aa(lp338
F0.0
aF1.0846658471621573
aa(lp339
F0.03
aF0.7324616030891995
aa(lp340
F0.014142135623730947
aF0.6711929677819933
aa(lp341
F0.009999999999999995
aF0.014142135623730923
aa(lp342
F0.01
aF0.022360679774997918
aa(lp343
F0.1044030650891055
aF0.5842088667591411
aa(lp344
F0.0670820393249937
aF0.4204759208325727
aa(lp345
F0.04242640687119285
aF0.78
aa(lp346
F0.03
aF0.6777905281132217
aa(lp347
F0.010000000000000009
aF0.5500909015790026
aa(lp348
F0.02236067977499789
aF0.05830951894845296
aa(lp349
F0.03
aF0.12206555615733708
aa(lp350
F0.009999999999999995
aF0.014142135623730963
aa(lp351
F0.0
aF0.050000000000000044
aa(lp352
F0.010000000000000002
aF0.16999999999999993
aa(lp353
F0.014142135623730947
aF0.29206163733020474
aa(lp354
F0.0
aF0.009999999999999981
aa(lp355
F0.0
aF0.014142135623730944
aa(lp356
F0.0
aF0.010000000000000009
aa(lp357
F0.0
aF0.010000000000000009
aa(lp358
F0.0
aF0.010000000000000009
aa(lp359
F0.0
aF0.009999999999999981
aa(lp360
F0.01
aF0.022360679774997894
aa(lp361
F0.0
aF0.4482186966202995
aa(lp362
F0.014142135623730949
aF0.0316227766016838
aa(lp363
F0.014142135623730949
aF0.0
aa(lp364
F0.014142135623730949
aF0.030000000000000002
aa(lp365
F0.022360679774997894
aF0.0412310562561766
aa(lp366
F0.05385164807134504
aF0.5403702434442519
aa(lp367
F0.010000000000000002
aF0.570350769263968
aa(lp368
F0.0360555127546399
aF0.4301162633521315
aa(lp369
F0.014142135623730949
aF0.6694027188471824
aa(lp370
F0.041231056256176596
aF0.49244289008980524
aa(lp371
F0.0
aF0.5728001396647875
aa(lp372
F0.009999999999999995
aF0.07810249675906661
aa(lp373
F0.08544003745317531
aF0.08944271909999164
aa(lp374
F0.12
aF0.5594640292279746
aa(lp375
F0.028284271247461905
aF0.6360031446463139
aa(lp376
F0.058309518948453
aF0.6109828148156052
aa(lp377
F0.16492422502470644
aF0.7337574531137656
aa(lp378
F0.03162277660168379
aF0.022360679774997817
aa(lp379
F0.0412310562561766
aF1.0594810050208545
aa(lp380
F0.12806248474865697
aF0.08944271909999157
aa(lp381
F0.022360679774997904
aF0.8228000972289685
aa(lp382
F0.13601470508735444
aF1.0941663493271945
aa(lp383
F0.009999999999999995
aF0.17262676501632063
aa(lp384
F0.0806225774829855
aF0.6207253821135397
aa(lp385
F0.02
aF0.3498571136907181
aa(lp386
F0.01
aF0.7134423592694787
aa(lp387
F0.14317821063276354
aF0.7647875521999558
aa(lp388
F0.010000000000000002
aF0.014142135623730923
aa(lp389
F0.0
aF0.8141252974819049
aa(lp390
F0.05099019513592785
aF0.17492855684535902
aa(lp391
F0.09848857801796104
aF0.5173973328110612
aa(lp392
F0.014142135623730949
aF0.014142135623730963
aa(lp393
F0.009999999999999995
aF0.020000000000000018
aa(lp394
F0.014142135623730945
aF0.010000000000000009
aa(lp395
F0.01
aF0.03162277660168382
aa(lp396
F0.16155494421403513
aF0.4143669871020133
aa(lp397
F0.028284271247461905
aF0.08485281374238574
aa(lp398
F0.1004987562112089
aF0.6818357573492316
aa(lp399
F0.06403124237432849
aF0.2884441020371191
aa(lp400
F0.18439088914585774
aF0.3
aa(lp401
F0.0223606797749979
aF0.06708203932499365
aa(lp402
F0.0223606797749979
aF0.014142135623730963
aa(lp403
F0.014142135623730958
aF0.31575306807693887
aa(lp404
F0.056568542494923796
aF0.19924858845171278
aa(lp405
F0.009999999999999995
aF0.07280109889280519
aa(lp406
F0.11704699910719626
aF0.15524174696260015
aa(lp407
F0.009999999999999998
aF0.24186773244895646
aa(lp408
F0.0
aF0.014142135623730963
aa(lp409
F0.06
aF0.3443835071544513
aa(lp410
F0.022360679774997894
aF0.188679622641132
aa(lp411
F0.0
aF0.12369316876852991
aa(lp412
F0.0
aF0.03
aa(lp413
F0.03162277660168379
aF0.31304951684997057
aa(lp414
F0.06403124237432849
aF0.9277930803794562
aa(lp415
F0.08602325267042626
aF0.4712748667179272
aa(lp416
F0.12649110640673517
aF0.160312195418814
aa(lp417
F0.03
aF0.16278820596099713
aa(lp418
F0.022360679774997894
aF0.19723082923316027
aa(lp419
F0.09433981132056604
aF0.15652475842498526
aa(lp420
F0.03162277660168379
aF0.28460498941515416
aa(lp421
F0.009999999999999995
aF0.022360679774997918
aa(lp422
F0.0
aF0.04242640687119285
aa(lp423
F0.04472135954999579
aF0.1615549442140351
aa(lp424
F0.02
aF0.10295630140987004
aa(lp425
F0.0223606797749979
aF0.6772001181334807
aa(lp426
F0.009999999999999995
aF0.24515301344262524
aa(lp427
F0.01999999999999999
aF0.7130918594402827
aa(lp428
F0.039999999999999994
aF0.03162277660168382
aa(lp429
F0.022360679774997904
aF0.5936328831862333
aa(lp430
F0.161245154965971
aF0.21023796041628642
aa(lp431
F0.014142135623730958
aF0.11401754250991389
aa(lp432
F0.06
aF0.05656854249492381
aa(lp433
F0.0412310562561766
aF0.06403124237432851
aa(lp434
F0.12727922061357855
aF0.3959797974644666
aa(lp435
F0.0412310562561766
aF0.35468295701936403
aa(lp436
F0.009999999999999995
aF0.036055512754639925
aa(lp437
F0.028284271247461905
aF0.16492422502470636
aa(lp438
F0.041231056256176596
aF0.4386342439892262
aa(lp439
F0.04242640687119285
aF0.51478150704935
aa(lp440
F0.022360679774997894
aF0.608769250208977
aa(lp441
F0.014142135623730947
aF0.05656854249492385
aa(lp442
F0.014142135623730949
aF0.04999999999999988
aa(lp443
F0.0
aF0.050990195135927785
aa(lp444
F0.16278820596099708
aF0.570701322935211
aa(lp445
F0.014142135623730944
aF0.18867962264113197
aa(lp446
F0.022360679774997904
aF0.46690470119715005
aa(lp447
F0.04
aF0.20880613017821095
aa(lp448
F0.08602325267042628
aF0.4244997055358224
aa(lp449
F0.10295630140987
aF0.277848879788996
aa(lp450
F0.01
aF0.022360679774997918
aa.