(lp0
(lp1
F0.009999999999999998
aF0.014142135623730963
aa(lp2
F0.0
aF0.010000000000000009
aa(lp3
F0.0
aF1.2649110640673518
aa(lp4
F0.0
aF0.39051248379533277
aa(lp5
F0.14866068747318506
aF1.5784802817900516
aa(lp6
F0.0848528137423857
aF1.6823792675850473
aa(lp7
F0.08246211251235322
aF0.30805843601498717
aa(lp8
F0.14560219778561037
aF0.3488552708502481
aa(lp9
F0.01
aF0.44102154142399896
aa(lp10
F0.02
aF0.1303840481040529
aa(lp11
F0.07810249675906654
aF0.27294688127912364
aa(lp12
F0.009999999999999995
aF0.03
aa(lp13
F0.014142135623730947
aF0.2280350850198276
aa(lp14
F0.14866068747318506
aF0.2408318915758459
aa(lp15
F0.12206555615733702
aF0.3605551275463989
aa(lp16
F0.0
aF0.009999999999999995
aa(lp17
F0.014142135623730945
aF0.022360679774997904
aa(lp18
F0.09219544457292887
aF0.47000000000000003
aa(lp19
F0.05385164807134504
aF0.2941088233970548
aa(lp20
F0.0806225774829855
aF0.2282542442102665
aa(lp21
F0.09219544457292887
aF0.933488082409197
aa(lp22
F0.0806225774829855
aF0.8987213138676529
aa(lp23
F0.014142135623730949
aF0.014142135623730963
aa(lp24
F0.010000000000000002
aF0.0
aa(lp25
F0.08246211251235322
aF0.5597320787662612
aa(lp26
F0.07615773105863909
aF0.05999999999999994
aa(lp27
F0.1044030650891055
aF1.0200490184299968
aa(lp28
F0.05
aF0.07810249675906646
aa(lp29
F0.009999999999999995
aF0.25
aa(lp30
F0.0360555127546399
aF0.40459856648287823
aa(lp31
F0.014142135623730949
aF0.020000000000000018
aa(lp32
F0.2109502310972899
aF0.17029386365926394
aa(lp33
F0.208806130178211
aF0.4410215414239989
aa(lp34
F0.1264911064067352
aF0.7454528824815154
aa(lp35
F0.09219544457292889
aF0.2863564212655271
aa(lp36
F0.17
aF0.29832867780352595
aa(lp37
F0.009999999999999995
aF0.0
aa(lp38
F0.009999999999999995
aF0.01999999999999999
aa(lp39
F0.03162277660168379
aF1.5616017418023074
aa(lp40
F0.10198039027185571
aF0.16124515496597092
aa(lp41
F0.1063014581273465
aF0.41303752856126763
aa(lp42
F0.05
aF0.4477722635447622
aa(lp43
F0.0848528137423857
aF1.4342245291445828
aa(lp44
F0.009999999999999998
aF0.18681541692269404
aa(lp45
F0.09219544457292887
aF0.41773197148410846
aa(lp46
F0.0223606797749979
aF0.12369316876852982
aa(lp47
F0.010000000000000009
aF0.04123105625617662
aa(lp48
F0.009999999999999995
aF0.03
aa(lp49
F0.15524174696260026
aF0.2906888370749726
aa(lp50
F0.042426406871192854
aF0.5360037313302959
aa.