(lp0
(lp1
F0.03162277660168379
aF0.10816653826391959
aa(lp2
F0.09219544457292889
aF0.8360023923410747
aa(lp3
F0.07071067811865475
aF2.0060907257649143
aa(lp4
F0.04472135954999579
aF0.11401754250991368
aa(lp5
F0.014142135623730947
aF0.020000000000000018
aa(lp6
F0.0412310562561766
aF0.08062257748298549
aa(lp7
F0.010000000000000002
aF0.35355339059327373
aa(lp8
F0.11
aF1.9220041623263984
aa(lp9
F0.12041594578792295
aF0.4295346318982906
aa(lp10
F0.053851648071345036
aF0.36674241641784494
aa(lp11
F0.17029386365926402
aF0.7496665925596524
aa(lp12
F0.16278820596099708
aF1.4763468427168462
aa(lp13
F0.07
aF1.3635981812836215
aa(lp14
F0.06082762530298219
aF0.5249761899362676
aa(lp15
F0.06082762530298219
aF0.2954657340538832
aa(lp16
F0.03
aF0.521536192416212
aa(lp17
F0.04
aF0.8902246907382428
aa(lp18
F0.009999999999999998
aF0.0
aa(lp19
F0.009999999999999998
aF0.010000000000000009
aa(lp20
F0.009999999999999995
aF0.0
aa(lp21
F0.0
aF0.010000000000000009
aa(lp22
F0.010000000000000002
aF0.0
aa(lp23
F0.010000000000000002
aF0.0
aa(lp24
F0.0
aF0.0
aa(lp25
F0.03162277660168379
aF1.0825894882179488
aa(lp26
F0.05099019513592784
aF0.30870698080866266
aa(lp27
F0.09848857801796106
aF0.9449338601193208
aa(lp28
F0.014142135623730944
aF0.8800568163476719
aa(lp29
F0.25632011235952595
aF0.3324154027718932
aa(lp30
F0.17691806012954134
aF0.44011362169330775
aa(lp31
F0.161245154965971
aF0.43462627624201466
aa(lp32
F0.04123105625617661
aF0.693541635375988
aa(lp33
F0.053851648071345036
aF0.17029386365926394
aa(lp34
F0.17262676501632068
aF0.250798724079689
aa(lp35
F0.10816653826391967
aF1.235556554755791
aa(lp36
F0.1004987562112089
aF0.1
aa(lp37
F0.1824828759089466
aF0.17464249196572973
aa(lp38
F0.07071067811865475
aF0.21540659228538012
aa(lp39
F0.09848857801796104
aF0.06324555320336743
aa(lp40
F0.10198039027185571
aF0.46065171225124085
aa(lp41
F0.019999999999999997
aF0.022360679774997918
aa(lp42
F0.0223606797749979
aF0.020000000000000018
aa(lp43
F0.14422205101855956
aF0.472652091923859
aa(lp44
F0.0
aF0.010000000000000009
aa(lp45
F0.01
aF0.020000000000000018
aa(lp46
F0.15
aF0.16763054614240208
aa(lp47
F0.014142135623730947
aF0.12041594578792306
aa(lp48
F0.17029386365926402
aF0.5724508712544685
aa(lp49
F0.010000000000000009
aF0.010000000000000009
aa(lp50
F0.1
aF0.9871676655968833
aa.