(lp0
(lp1
F0.010000000000000002
aF0.16278820596099705
aa(lp2
F0.044721359549995794
aF0.5220153254455275
aa(lp3
F0.010000000000000009
aF0.04472135954999562
aa(lp4
F0.06082762530298219
aF0.47539457296018856
aa(lp5
F0.014142135623730947
aF0.014142135623730963
aa(lp6
F0.01
aF0.020000000000000018
aa(lp7
F0.009999999999999995
aF0.04472135954999579
aa(lp8
F0.009999999999999998
aF0.27018512172212594
aa(lp9
F0.009999999999999995
aF0.06708203932499375
aa(lp10
F0.17691806012954134
aF0.3905124837953327
aa(lp11
F0.161245154965971
aF0.6859300255857006
aa(lp12
F0.0
aF0.16031219541881395
aa(lp13
F0.04472135954999579
aF0.323882694814033
aa(lp14
F0.0721110255092798
aF0.40706264874095227
aa(lp15
F0.16278820596099708
aF0.6806614430096654
aa(lp16
F0.009999999999999998
aF0.010000000000000009
aa(lp17
F0.009999999999999998
aF0.014142135623730963
aa(lp18
F0.019999999999999997
aF0.04999999999999999
aa(lp19
F0.1772004514666935
aF0.3125699921617557
aa(lp20
F0.19235384061671346
aF0.6846897107449476
aa(lp21
F0.06
aF0.9121403400793104
aa(lp22
F0.022360679774997894
aF0.38013155617496425
aa(lp23
F0.009999999999999995
aF0.0316227766016838
aa(lp24
F0.050990195135927854
aF0.47169905660283024
aa(lp25
F0.16155494421403513
aF0.8793179174792244
aa(lp26
F0.020000000000000004
aF0.058309518948452946
aa(lp27
F0.19313207915827965
aF0.19209372712298545
aa(lp28
F0.09433981132056604
aF0.11180339887498947
aa(lp29
F0.014142135623730958
aF0.022360679774997904
aa(lp30
F0.15620499351813308
aF0.3452535300326415
aa(lp31
F0.03605551275463988
aF0.0
aa(lp32
F0.010000000000000002
aF0.2024845673131659
aa(lp33
F0.041231056256176596
aF0.841486779456457
aa(lp34
F0.009999999999999995
aF0.014142135623730958
aa(lp35
F0.009999999999999995
aF0.014142135623730958
aa(lp36
F0.18027756377319945
aF0.1392838827718412
aa(lp37
F0.13
aF0.32388269481403287
aa(lp38
F0.0316227766016838
aF0.49979995998399196
aa(lp39
F0.014142135623730952
aF0.16643316977093237
aa(lp40
F0.014142135623730944
aF0.022360679774997918
aa(lp41
F0.12369316876852982
aF0.7468600939935135
aa(lp42
F0.05099019513592785
aF0.36055512754639896
aa(lp43
F0.12083045973594572
aF0.48301138702933283
aa(lp44
F0.04
aF0.4045985664828782
aa(lp45
F0.0
aF0.0632455532033676
aa(lp46
F0.15620499351813308
aF0.3981205847478878
aa(lp47
F0.17262676501632068
aF0.2915475947422648
aa(lp48
F0.01
aF0.022360679774997904
aa(lp49
F0.08544003745317531
aF0.24839484696748437
aa(lp50
F0.014142135623730944
aF0.0509901951359278
aa(lp51
F0.03
aF0.11401754250991382
aa(lp52
F0.1118033988749895
aF0.10198039027185579
aa(lp53
F0.044721359549995794
aF0.24186773244895646
aa(lp54
F0.014142135623730949
aF0.014142135623730963
aa(lp55
F0.010000000000000002
aF0.08485281374238558
aa(lp56
F0.01
aF0.050990195135927834
aa(lp57
F0.05
aF0.8937561188601731
aa(lp58
F0.022360679774997894
aF0.38288379438153297
aa(lp59
F0.028284271247461898
aF0.38600518131237554
aa(lp60
F0.014142135623730952
aF0.036055512754639925
aa(lp61
F0.009999999999999995
aF0.010000000000000009
aa(lp62
F0.161245154965971
aF0.8450443775329199
aa(lp63
F0.1140175425099138
aF0.8655634003352961
aa(lp64
F0.03162277660168379
aF0.75
aa(lp65
F0.0
aF0.04472135954999581
aa(lp66
F0.07280109889280517
aF0.5614267539047281
aa(lp67
F0.0608276253029822
aF0.73824115301167
aa(lp68
F0.03
aF0.18999999999999995
aa(lp69
F0.009999999999999995
aF0.022360679774997918
aa(lp70
F0.014142135623730947
aF0.009999999999999981
aa(lp71
F0.009999999999999995
aF0.0316227766016838
aa(lp72
F0.022360679774997894
aF0.36055512754639896
aa(lp73
F0.042426406871192854
aF0.3733630940518893
aa(lp74
F0.009999999999999995
aF0.010000000000000009
aa(lp75
F0.009999999999999995
aF0.06082762530298214
aa(lp76
F0.041231056256176596
aF0.4924428900898053
aa(lp77
F0.009999999999999995
aF0.05656854249492385
aa(lp78
F0.1746424919657298
aF0.5162363799656122
aa(lp79
F0.03605551275463989
aF0.6702984409947557
aa(lp80
F0.13453624047073712
aF0.5700000000000001
aa(lp81
F0.07280109889280517
aF0.45099889135118726
aa(lp82
F0.04
aF0.3945883931389772
aa(lp83
F0.009999999999999995
aF0.022360679774997817
aa(lp84
F0.07071067811865475
aF0.2830194339616981
aa(lp85
F0.18973665961010275
aF0.38013155617496425
aa(lp86
F0.17088007490635063
aF0.3858756276314947
aa(lp87
F0.03605551275463988
aF0.1486606874731851
aa(lp88
F0.014142135623730949
aF0.04472135954999581
aa(lp89
F0.009999999999999998
aF0.014142135623730944
aa(lp90
F0.02
aF0.010000000000000009
aa(lp91
F0.009999999999999995
aF0.05656854249492373
aa(lp92
F0.06324555320336758
aF0.053851648071345064
aa(lp93
F0.019999999999999997
aF0.37483329627982614
aa(lp94
F0.10816653826391968
aF0.5315072906367325
aa(lp95
F0.010000000000000002
aF0.050000000000000044
aa(lp96
F0.0412310562561766
aF0.05656854249492369
aa(lp97
F0.1140175425099138
aF0.8723531395025755
aa(lp98
F0.009999999999999995
aF0.014142135623730807
aa(lp99
F0.05
aF0.723671196055225
aa(lp100
F0.0
aF0.38418745424597095
aa(lp101
F0.009999999999999998
aF0.041231056256176644
aa(lp102
F0.07071067811865475
aF0.6928924880528002
aa(lp103
F0.09
aF0.8302409288875128
aa(lp104
F0.05
aF0.6846897107449476
aa(lp105
F0.07810249675906654
aF0.6800735254367721
aa(lp106
F0.058309518948453
aF0.28071337695236404
aa(lp107
F0.18027756377319945
aF0.24999999999999997
aa(lp108
F0.15264337522473748
aF0.42755116652863906
aa(lp109
F0.022360679774997894
aF0.15264337522473748
aa(lp110
F0.1341640786499874
aF0.2912043955712209
aa(lp111
F0.09848857801796106
aF0.5661271941887265
aa(lp112
F0.028284271247461898
aF0.7234638899074369
aa(lp113
F0.009999999999999995
aF0.050990195135927896
aa(lp114
F0.0
aF0.010000000000000009
aa(lp115
F0.0
aF0.03162277660168382
aa(lp116
F0.13601470508735444
aF0.3999999999999999
aa(lp117
F0.014142135623730952
aF0.041231056256176644
aa(lp118
F0.05656854249492381
aF0.07280109889280524
aa(lp119
F0.010000000000000002
aF0.04123105625617659
aa(lp120
F0.014142135623730947
aF0.16124515496597103
aa(lp121
F0.01
aF0.022360679774997904
aa(lp122
F0.0
aF0.014142135623730952
aa(lp123
F0.03162277660168379
aF0.15132745950421558
aa(lp124
F0.01
aF0.030000000000000027
aa(lp125
F0.03162277660168379
aF0.28635642126552696
aa(lp126
F0.04
aF0.27459060435491967
aa(lp127
F0.05
aF0.5707889277132135
aa(lp128
F0.039999999999999994
aF0.4404543109109048
aa(lp129
F0.1746424919657298
aF0.425205832509386
aa(lp130
F0.0316227766016838
aF0.0316227766016838
aa(lp131
F0.17029386365926402
aF0.2505992817228333
aa(lp132
F0.12
aF1.0295630140987
aa(lp133
F0.11180339887498948
aF0.7134423592694789
aa(lp134
F0.0
aF0.5661271941887265
aa(lp135
F0.049999999999999996
aF0.0707106781186546
aa(lp136
F0.10198039027185571
aF0.266270539113887
aa(lp137
F0.014142135623730949
aF0.022360679774997817
aa(lp138
F0.010000000000000002
aF0.050000000000000044
aa(lp139
F0.1019803902718557
aF0.9261749294814668
aa(lp140
F0.0412310562561766
aF0.15264337522473737
aa(lp141
F0.009999999999999995
aF0.030000000000000027
aa(lp142
F0.022360679774997894
aF0.44045431091090487
aa(lp143
F0.049999999999999996
aF0.1456021977856104
aa(lp144
F0.09055385138137417
aF0.6723094525588643
aa(lp145
F0.0360555127546399
aF0.8070935509592428
aa(lp146
F0.0
aF0.04123105625617664
aa(lp147
F0.161245154965971
aF0.6652818951391958
aa(lp148
F0.04472135954999579
aF0.2906888370749727
aa(lp149
F0.08246211251235322
aF0.2193171219946131
aa(lp150
F0.07071067811865474
aF0.4070626487409524
aa(lp151
F0.17117242768623692
aF0.8766413177577247
aa(lp152
F0.158113883008419
aF0.29966648127543394
aa(lp153
F0.0
aF0.014142135623730963
aa(lp154
F0.0
aF0.01999999999999999
aa(lp155
F0.0
aF0.028284271247461926
aa(lp156
F0.01
aF0.03162277660168377
aa(lp157
F0.0
aF0.014142135623730963
aa(lp158
F0.05
aF0.219317121994613
aa(lp159
F0.022360679774997894
aF0.4687216658103186
aa(lp160
F0.13152946437965907
aF0.5288667128870941
aa(lp161
F0.10770329614269009
aF0.36400549446402597
aa(lp162
F0.0
aF0.014142135623730923
aa(lp163
F0.014142135623730949
aF0.014142135623730963
aa(lp164
F0.009999999999999995
aF0.014142135623730963
aa(lp165
F0.009999999999999995
aF0.014142135623730963
aa(lp166
F0.009999999999999995
aF0.014142135623730963
aa(lp167
F0.0
aF0.014142135623730963
aa(lp168
F0.0
aF0.014142135623730963
aa(lp169
F0.010000000000000002
aF0.0
aa(lp170
F0.009999999999999998
aF0.12727922061357846
aa(lp171
F0.04472135954999579
aF0.6876772498781677
aa(lp172
F0.09219544457292887
aF0.2683281572999748
aa(lp173
F0.14422205101855956
aF0.61400325732035
aa(lp174
F0.009999999999999995
aF0.02236067977499791
aa(lp175
F0.014142135623730947
aF0.17029386365926394
aa(lp176
F0.009999999999999995
aF0.014142135623730958
aa(lp177
F0.01
aF0.010000000000000009
aa(lp178
F0.0
aF0.014142135623730958
aa(lp179
F0.01
aF0.014142135623730956
aa(lp180
F0.009999999999999998
aF0.03162277660168382
aa(lp181
F0.15000000000000002
aF0.7116881339463234
aa(lp182
F0.07211102550927978
aF0.9128526715741154
aa(lp183
F0.03
aF0.8658521813797087
aa(lp184
F0.04
aF0.05385164807134509
aa(lp185
F0.05
aF0.15811388300841903
aa(lp186
F0.03162277660168379
aF0.5122499389946279
aa(lp187
F0.044721359549995794
aF0.6552098900352465
aa(lp188
F0.16401219466856726
aF0.388329756778952
aa(lp189
F0.014142135623730945
aF0.022360679774997918
aa(lp190
F0.0
aF0.020000000000000018
aa(lp191
F0.01
aF0.06324555320336754
aa(lp192
F0.01
aF0.020000000000000018
aa(lp193
F0.022360679774997894
aF0.27018512172212594
aa(lp194
F0.08602325267042628
aF0.30000000000000004
aa(lp195
F0.022360679774997897
aF0.7280109889280518
aa(lp196
F0.04472135954999579
aF0.10770329614268996
aa(lp197
F0.014142135623730947
aF0.02236067977499791
aa(lp198
F0.0
aF0.022360679774997918
aa(lp199
F0.0
aF0.022360679774997904
aa(lp200
F0.01
aF0.036055512754639925
aa(lp201
F0.0
aF0.022360679774997904
aa(lp202
F0.06403124237432849
aF0.5571355310873648
aa(lp203
F0.009999999999999995
aF0.8300602387778854
aa(lp204
F0.010000000000000002
aF0.040000000000000036
aa(lp205
F0.0670820393249937
aF0.4237924020083419
aa(lp206
F0.18027756377319945
aF1.0012492197250393
aa(lp207
F0.06324555320336758
aF0.7782673062643708
aa(lp208
F0.01
aF0.010000000000000009
aa(lp209
F0.009999999999999995
aF0.03999999999999998
aa(lp210
F0.01
aF0.223606797749979
aa(lp211
F0.11401754250991382
aF0.23086792761230387
aa(lp212
F0.0632455532033676
aF0.20615528128088306
aa(lp213
F0.009999999999999995
aF0.010000000000000009
aa(lp214
F0.01
aF0.010000000000000009
aa(lp215
F0.009999999999999998
aF0.044721359549995836
aa(lp216
F0.014142135623730945
aF0.010000000000000009
aa(lp217
F0.014142135623730947
aF0.17492855684535907
aa(lp218
F0.0
aF0.010000000000000009
aa(lp219
F0.0
aF0.010000000000000009
aa(lp220
F0.1004987562112089
aF0.18110770276274832
aa(lp221
F0.049999999999999996
aF0.3769615364994154
aa(lp222
F0.1676305461424021
aF0.61
aa(lp223
F0.014142135623730949
aF0.02
aa(lp224
F0.0
aF0.0223606797749979
aa(lp225
F0.010000000000000002
aF0.009999999999999998
aa(lp226
F0.0
aF0.010000000000000002
aa(lp227
F0.014142135623730945
aF0.014142135623730958
aa(lp228
F0.014142135623730945
aF0.009999999999999995
aa(lp229
F0.009999999999999995
aF0.014142135623730963
aa(lp230
F0.0
aF0.014142135623730952
aa(lp231
F0.009999999999999995
aF0.020000000000000018
aa(lp232
F0.0806225774829855
aF0.28178005607210743
aa(lp233
F0.014142135623730949
aF1.0406248123122954
aa(lp234
F0.05656854249492381
aF0.3111269837220809
aa(lp235
F0.010000000000000002
aF0.05656854249492385
aa(lp236
F0.053851648071345036
aF0.1208304597359456
aa(lp237
F0.1063014581273465
aF0.2884441020371192
aa(lp238
F0.04000000000000001
aF0.35510561809129404
aa(lp239
F0.04242640687119285
aF0.5283937925449163
aa(lp240
F0.009999999999999998
aF0.5872818744010408
aa(lp241
F0.16401219466856726
aF1.1108555261599053
aa(lp242
F0.1746424919657298
aF0.5903388857258177
aa(lp243
F0.12
aF0.1676305461424021
aa(lp244
F0.0412310562561766
aF0.587962583843564
aa(lp245
F0.15
aF0.41109609582188933
aa(lp246
F0.25317977802344327
aF0.32756678708318404
aa(lp247
F0.07280109889280517
aF0.543783044972901
aa(lp248
F0.0
aF0.09219544457292891
aa(lp249
F0.09
aF0.15297058540778347
aa(lp250
F0.1004987562112089
aF0.25495097567963926
aa(lp251
F0.0
aF0.022360679774997918
aa(lp252
F0.0
aF0.04123105625617659
aa(lp253
F0.049999999999999996
aF0.8286132994346639
aa(lp254
F0.0632455532033676
aF1.021077861869505
aa(lp255
F0.17262676501632068
aF0.5336665625650533
aa(lp256
F0.0
aF0.912195154558497
aa(lp257
F0.0
aF0.9121403400793104
aa(lp258
F0.03162277660168379
aF1.0594810050208545
aa(lp259
F0.028284271247461905
aF0.23345235059857503
aa(lp260
F0.014142135623730944
aF0.010000000000000009
aa(lp261
F0.161245154965971
aF0.4004996878900156
aa(lp262
F0.03
aF0.014142135623730963
aa(lp263
F0.009999999999999998
aF0.05830951894845302
aa(lp264
F0.009999999999999995
aF0.06082762530298221
aa(lp265
F0.014142135623730945
aF0.09433981132056607
aa(lp266
F0.0360555127546399
aF0.7840918313565064
aa(lp267
F0.009999999999999995
aF0.1019803902718557
aa(lp268
F0.014142135623730947
aF0.01999999999999999
aa(lp269
F0.07810249675906654
aF0.5724508712544685
aa(lp270
F0.020000000000000004
aF0.04472135954999581
aa(lp271
F0.13892443989449804
aF0.4301162633521313
aa(lp272
F0.014142135623730952
aF0.6985699678629191
aa(lp273
F0.02828427124746189
aF0.6811754546370561
aa(lp274
F0.009999999999999995
aF0.020000000000000004
aa(lp275
F0.009999999999999995
aF0.009999999999999995
aa(lp276
F0.0
aF0.03
aa(lp277
F0.0
aF0.009999999999999995
aa(lp278
F0.019999999999999997
aF0.6262587324740471
aa(lp279
F0.009999999999999995
aF0.009999999999999995
aa(lp280
F0.13892443989449804
aF0.9829038610159184
aa(lp281
F0.03
aF0.4623851208678757
aa(lp282
F0.014142135623730949
aF0.0670820393249937
aa(lp283
F0.11704699910719625
aF0.0707106781186547
aa(lp284
F0.0412310562561766
aF0.6711929677819934
aa(lp285
F0.130384048104053
aF0.5727128425310541
aa(lp286
F0.18027756377319945
aF0.41436698710201314
aa(lp287
F0.05
aF0.1920937271229854
aa(lp288
F0.0412310562561766
aF0.17117242768623683
aa(lp289
F0.12727922061357855
aF0.3551056180912941
aa(lp290
F0.09433981132056604
aF0.625859409132754
aa(lp291
F0.09848857801796106
aF0.7283543093852057
aa(lp292
F0.044721359549995794
aF0.3008321791298265
aa(lp293
F0.03605551275463989
aF0.06708203932499371
aa(lp294
F0.0
aF0.7427651041883969
aa(lp295
F0.009999999999999995
aF0.02999999999999997
aa(lp296
F0.161245154965971
aF0.32015621187164245
aa(lp297
F0.08246211251235322
aF0.6912307863514183
aa(lp298
F0.02
aF0.1118033988749895
aa(lp299
F0.06324555320336758
aF0.6511528238439882
aa(lp300
F0.0806225774829855
aF0.6334824385884742
aa(lp301
F0.009999999999999995
aF0.32802438933713446
aa(lp302
F0.0806225774829855
aF0.5412023651093923
aa(lp303
F0.18384776310850237
aF0.736002717386288
aa(lp304
F0.0721110255092798
aF0.37483329627982626
aa(lp305
F0.0
aF0.7102112361825881
aa(lp306
F0.0
aF0.019999999999999907
aa(lp307
F0.009999999999999995
aF0.010000000000000009
aa(lp308
F0.014142135623730947
aF0.014142135623730963
aa(lp309
F0.009999999999999995
aF0.020000000000000018
aa(lp310
F0.01
aF0.010000000000000009
aa(lp311
F0.01
aF0.020000000000000018
aa(lp312
F0.009999999999999995
aF0.010000000000000009
aa(lp313
F0.014142135623730947
aF0.010000000000000009
aa(lp314
F0.01
aF0.009999999999999953
aa(lp315
F0.014142135623730947
aF0.02999999999999997
aa(lp316
F0.0
aF0.010000000000000009
aa(lp317
F0.0
aF0.010000000000000009
aa(lp318
F0.0
aF0.010000000000000009
aa(lp319
F0.022360679774997894
aF0.2884441020371192
aa(lp320
F0.09055385138137416
aF0.7244998274671983
aa(lp321
F0.0316227766016838
aF0.03999999999999998
aa(lp322
F0.13152946437965907
aF0.6082762530298219
aa(lp323
F0.08944271909999159
aF0.10000000000000006
aa(lp324
F0.03
aF0.3858756276314947
aa(lp325
F0.0721110255092798
aF1.4024621207005914
aa(lp326
F0.0
aF0.022360679774997918
aa(lp327
F0.01
aF0.044721359549995586
aa(lp328
F0.0806225774829855
aF0.49244289008980524
aa(lp329
F0.014142135623730945
aF0.036055512754639904
aa(lp330
F0.06403124237432849
aF0.2282542442102665
aa(lp331
F0.03162277660168379
aF0.32280024783137956
aa(lp332
F0.17691806012954134
aF0.4440720662234903
aa(lp333
F0.1
aF0.17720045146669344
aa(lp334
F0.0412310562561766
aF0.06324555320336764
aa(lp335
F0.014142135623730944
aF0.26925824035672524
aa(lp336
F0.0806225774829855
aF0.17204650534085256
aa(lp337
F0.014142135623730949
aF0.3841874542459709
aa(lp338
F0.03605551275463988
aF0.7660939890117923
aa(lp339
F0.0316227766016838
aF0.7789736837660178
aa(lp340
F0.010000000000000009
aF0.014142135623730963
aa(lp341
F0.014142135623730952
aF0.16763054614240208
aa(lp342
F0.07211102550927978
aF0.3405877273185279
aa(lp343
F0.009999999999999995
aF0.010000000000000009
aa(lp344
F0.0412310562561766
aF0.861452262171271
aa(lp345
F0.014142135623730949
aF0.014142135623730963
aa(lp346
F0.05
aF0.27658633371878655
aa(lp347
F0.161245154965971
aF0.26305892875931813
aa(lp348
F0.0360555127546399
aF0.7473285756613351
aa(lp349
F0.16970562748477142
aF0.5020956084253277
aa(lp350
F0.0806225774829855
aF0.9693812459502196
aa(lp351
F0.028284271247461905
aF0.8105553651663777
aa(lp352
F0.022360679774997897
aF0.13892443989449793
aa(lp353
F0.014142135623730945
aF0.03162277660168382
aa(lp354
F0.03
aF1.0469479452198185
aa(lp355
F0.022360679774997894
aF0.6139218191268331
aa(lp356
F0.0
aF0.014142135623730956
aa(lp357
F0.0
aF0.5385164807134505
aa(lp358
F0.0
aF0.036055512754639925
aa(lp359
F0.0
aF0.010000000000000009
aa(lp360
F0.0
aF0.028284271247461926
aa(lp361
F0.0
aF0.009999999999999898
aa(lp362
F0.01
aF0.08062257748298557
aa(lp363
F0.009999999999999995
aF0.07211102550927981
aa(lp364
F0.01
aF0.022360679774997918
aa(lp365
F0.1
aF0.7749193506423748
aa(lp366
F0.08602325267042628
aF0.6676076692189806
aa(lp367
F0.0
aF0.04472135954999573
aa(lp368
F0.022360679774997904
aF0.8507055894961547
aa(lp369
F0.014142135623730944
aF0.049999999999999954
aa(lp370
F0.053851648071345036
aF0.16999999999999993
aa(lp371
F0.0
aF0.029999999999999916
aa(lp372
F0.08602325267042628
aF0.37802116342871595
aa(lp373
F0.08944271909999159
aF0.6926037828369118
aa(lp374
F0.014142135623730947
aF0.17117242768623692
aa(lp375
F0.0
aF0.020000000000000018
aa(lp376
F0.009999999999999995
aF0.019999999999999907
aa(lp377
F0.0
aF0.020000000000000018
aa(lp378
F0.009999999999999995
aF0.040000000000000036
aa(lp379
F0.09848857801796106
aF0.41231056256176596
aa(lp380
F0.0
aF0.0316227766016838
aa(lp381
F0.03162277660168379
aF0.09486832980505146
aa(lp382
F0.022360679774997894
aF0.2683281572999748
aa(lp383
F0.0
aF0.10440306508910549
aa(lp384
F0.11180339887498948
aF0.46227697325304873
aa(lp385
F0.0
aF0.014142135623730963
aa(lp386
F0.010000000000000009
aF0.036055512754639925
aa(lp387
F0.014142135623730963
aF0.04242640687119285
aa(lp388
F0.049999999999999996
aF0.2816025568065745
aa(lp389
F0.0360555127546399
aF0.2640075756488817
aa(lp390
F0.17464249196572978
aF0.8464632301523792
aa(lp391
F0.009999999999999995
aF0.6648308055437864
aa(lp392
F0.009999999999999995
aF0.05385164807134505
aa(lp393
F0.06403124237432849
aF0.7337574531137656
aa(lp394
F0.0
aF0.0447213595499958
aa(lp395
F0.06082762530298219
aF0.552268050859363
aa(lp396
F0.0640312423743285
aF0.036055512754639925
aa(lp397
F0.12369316876852983
aF0.9749871794028884
aa(lp398
F0.02236067977499789
aF0.010000000000000009
aa(lp399
F0.04472135954999579
aF0.28442925306655786
aa(lp400
F0.03162277660168379
aF0.22671568097509273
aa(lp401
F0.014142135623730947
aF0.758023746329889
aa(lp402
F0.16031219541881397
aF0.6200000000000001
aa(lp403
F0.0
aF0.020000000000000018
aa(lp404
F0.014142135623730947
aF0.020000000000000018
aa(lp405
F0.014142135623730958
aF0.010000000000000009
aa(lp406
F0.0608276253029822
aF0.57
aa(lp407
F0.010000000000000002
aF0.05830951894845304
aa(lp408
F0.07810249675906654
aF0.2213594362117865
aa(lp409
F0.18439088914585774
aF0.21377558326431959
aa(lp410
F0.014142135623730947
aF0.01
aa(lp411
F0.010000000000000009
aF0.1334166406412634
aa(lp412
F0.09848857801796104
aF0.3753664875824692
aa(lp413
F0.1676305461424021
aF0.261725046566048
aa(lp414
F0.0
aF0.02999999999999997
aa(lp415
F0.01
aF0.030000000000000027
aa(lp416
F0.009999999999999995
aF0.5008991914547277
aa(lp417
F0.053851648071345036
aF0.32249030993194194
aa(lp418
F0.009999999999999995
aF0.06403124237432851
aa(lp419
F0.010000000000000002
aF0.7416872656315463
aa(lp420
F0.009999999999999995
aF0.041231056256176644
aa(lp421
F0.014142135623730947
aF0.7340980860893181
aa(lp422
F0.009999999999999995
aF0.7602631123499285
aa(lp423
F0.0412310562561766
aF0.10198039027185557
aa(lp424
F0.010000000000000009
aF0.9353608929178084
aa(lp425
F0.010000000000000009
aF0.04242640687119289
aa(lp426
F0.1392838827718412
aF0.4026164427839479
aa(lp427
F0.010000000000000002
aF0.014142135623730963
aa(lp428
F0.010000000000000002
aF0.02236067977499791
aa(lp429
F0.0412310562561766
aF0.10630145812734655
aa(lp430
F0.0806225774829855
aF0.020000000000000018
aa(lp431
F0.13892443989449804
aF0.6400781202322103
aa(lp432
F0.022360679774997894
aF0.24186773244895649
aa(lp433
F0.014142135623730947
aF0.2308679276123039
aa(lp434
F0.15524174696260024
aF0.23345235059857503
aa(lp435
F0.022360679774997894
aF0.12369316876852979
aa(lp436
F0.014142135623730949
aF0.8185963596303126
aa(lp437
F0.05
aF0.21000000000000008
aa(lp438
F0.07810249675906654
aF0.1476482306023339
aa(lp439
F0.06082762530298219
aF0.3899999999999999
aa(lp440
F0.0
aF0.06324555320336764
aa(lp441
F0.06082762530298219
aF0.8469356528095863
aa(lp442
F0.042426406871192854
aF0.8300602387778853
aa(lp443
F0.03
aF0.5234500931320961
aa(lp444
F0.0
aF0.1720465053408527
aa(lp445
F0.15620499351813308
aF0.050000000000000044
aa(lp446
F0.060000000000000005
aF0.30016662039607267
aa(lp447
F0.042426406871192854
aF0.7824321056807421
aa(lp448
F0.02236067977499789
aF0.042426406871192875
aa(lp449
F0.022360679774997894
aF0.6341135544995075
aa(lp450
F0.020000000000000004
aF0.044721359549995836
aa(lp451
F0.12041594578792296
aF0.3668787265568829
aa(lp452
F0.014142135623730958
aF0.6972087205421343
aa(lp453
F0.07280109889280519
aF0.37013511046643505
aa(lp454
F0.17804493814764857
aF0.5813776741499455
aa(lp455
F0.0
aF0.5255473337388366
aa(lp456
F0.039999999999999994
aF0.5047771785649584
aa(lp457
F0.1063014581273465
aF0.5412023651093922
aa(lp458
F0.028284271247461905
aF0.4318564576337836
aa(lp459
F0.08
aF0.49497474683058323
aa(lp460
F0.06403124237432849
aF0.33837848631377265
aa(lp461
F0.01
aF0.020000000000000018
aa(lp462
F0.0
aF0.014142135623730963
aa(lp463
F0.01
aF0.010000000000000009
aa(lp464
F0.0
aF0.022360679774997918
aa(lp465
F0.158113883008419
aF0.18110770276274835
aa(lp466
F0.020000000000000004
aF0.020000000000000018
aa(lp467
F0.039999999999999994
aF0.13416407864998742
aa(lp468
F0.04
aF0.7710382610480494
aa(lp469
F0.009999999999999995
aF0.1004987562112089
aa(lp470
F0.0
aF0.022360679774997894
aa(lp471
F0.009999999999999995
aF0.010000000000000009
aa(lp472
F0.0
aF0.0316227766016838
aa(lp473
F0.01
aF0.01999999999999999
aa(lp474
F0.05
aF0.6706713054842888
aa(lp475
F0.11045361017187262
aF0.22803508501982764
aa(lp476
F0.0670820393249937
aF0.49040799340956903
aa(lp477
F0.0
aF0.050000000000000024
aa(lp478
F0.0360555127546399
aF0.01414213562373088
aa(lp479
F0.022360679774997897
aF0.12529964086141668
aa(lp480
F0.0
aF0.1442220510185596
aa(lp481
F0.07211102550927978
aF0.06082762530298214
aa(lp482
F0.06082762530298219
aF0.5999999999999999
aa(lp483
F0.028284271247461905
aF0.6095900261651268
aa(lp484
F0.053851648071345036
aF0.260768096208106
aa(lp485
F0.08
aF0.162788205960997
aa(lp486
F0.044721359549995794
aF0.3939543120718442
aa(lp487
F0.020000000000000004
aF0.5240229002629562
aa(lp488
F0.10770329614269009
aF0.5787054518492115
aa(lp489
F0.014142135623730958
aF0.15811388300841897
aa(lp490
F0.12806248474865697
aF1.1884864324004714
aa(lp491
F0.019999999999999997
aF0.08062257748298546
aa(lp492
F0.1746424919657298
aF0.16278820596099705
aa(lp493
F0.0
aF0.04999999999999999
aa(lp494
F0.01
aF0.6675327707311455
aa(lp495
F0.02
aF0.296141857899217
aa(lp496
F0.022360679774997894
aF0.38639358172723304
aa(lp497
F0.039999999999999994
aF0.35902646142032485
aa(lp498
F0.0806225774829855
aF0.2433105012119288
aa(lp499
F0.014142135623730952
aF0.014142135623730963
aa(lp500
F0.05099019513592784
aF0.2580697580112789
aa.